(dp0
S'Extra Ordinary Items'
p1
(lp2
S'--'
p3
aS'--'
p4
aS'--'
p5
aS'--'
p6
aS'--'
p7
asS'Operating Profit before Provisions and contingencies'
p8
(lp9
sS'Source :  Dion Global Solutions Limited '
p10
(lp11
sS'Admin. And Selling Expenses'
p12
(lp13
S'--'
p14
aS'--'
p15
aS'0.59'
p16
aS'0.28'
p17
aS'--'
p18
asS'Public Share Holding'
p19
(lp20
sS'Employees Cost'
p21
(lp22
S'3.89'
p23
aS'15.67'
p24
aS'1.40'
p25
aS'0.51'
p26
aS'--'
p27
asS'Tax'
p28
(lp29
S'0.43'
p30
aS'0.56'
p31
aS'0.01'
p32
aS'-0.08'
p33
aS'--'
p34
asS'P/L Before Int., Excpt. Items & Tax'
p35
(lp36
S'0.91'
p37
aS'4.70'
p38
aS'0.06'
p39
aS'0.33'
p40
aS'0.55'
p41
asS'Purchase of Traded Goods'
p42
(lp43
S'--'
p44
aS'--'
p45
aS'--'
p46
aS'--'
p47
aS'--'
p48
asS'month'
p49
(lp50
S"Mar '14"
p51
aS"Mar '13"
p52
aS"Mar '12"
p53
aS"Mar '11"
p54
aS"Mar '10"
p55
asS'Reserves Excluding Revaluation Reserves'
p56
(lp57
S'--'
p58
aS'--'
p59
aS'--'
p60
aS'--'
p61
aS'6.12'
p62
asS'Power & Fuel'
p63
(lp64
S'--'
p65
aS'--'
p66
aS'--'
p67
aS'--'
p68
aS'--'
p69
asS'Promoters and Promoter Group Shareholding'
p70
(lp71
sS'Interest'
p72
(lp73
S'0.39'
p74
aS'0.17'
p75
aS'--'
p76
aS'0.07'
p77
aS'--'
p78
asS'P/L After Tax from Ordinary Activities'
p79
(lp80
S'0.09'
p81
aS'3.97'
p82
aS'0.05'
p83
aS'0.34'
p84
aS'0.55'
p85
asS'Prior Year Adjustments'
p86
(lp87
S'--'
p88
aS'--'
p89
aS'--'
p90
aS'--'
p91
aS'--'
p92
asS'R & D Expenses'
p93
(lp94
S'--'
p95
aS'--'
p96
aS'--'
p97
aS'--'
p98
aS'--'
p99
asS'P/L Before Other Inc. , Int., Excpt. Items & Tax'
p100
(lp101
S'0.91'
p102
aS'4.70'
p103
aS'0.02'
p104
aS'0.31'
p105
aS'0.55'
p106
asS'Consumption of Raw Materials'
p107
(lp108
S'--'
p109
aS'--'
p110
aS'--'
p111
aS'--'
p112
aS'--'
p113
asS'Total Income From Operations'
p114
(lp115
S'7.22'
p116
aS'26.28'
p117
aS'2.03'
p118
aS'1.10'
p119
aS'1.03'
p120
asS'Other Operating Income'
p121
(lp122
S'7.22'
p123
aS'0.07'
p124
aS'--'
p125
aS'--'
p126
aS'--'
p127
asS'Other Expenses'
p128
(lp129
S'0.58'
p130
aS'5.10'
p131
aS'--'
p132
aS'--'
p133
aS'0.48'
p134
asS'EPS After Extra Ordinary'
p135
(dp136
S'Basic EPS'
p137
(lp138
S'0.09'
p139
aS'3.95'
p140
aS'0.09'
p141
aS'0.61'
p142
aS'--'
p143
asS'Diluted EPS'
p144
(lp145
S'0.09'
p146
aS'3.95'
p147
aS'0.09'
p148
aS'0.61'
p149
aS'--'
p150
assS'P/L Before Exceptional Items & Tax'
p151
(lp152
S'0.53'
p153
aS'4.53'
p154
aS'0.06'
p155
aS'0.26'
p156
aS'0.55'
p157
asS'Exp. Capitalised'
p158
(lp159
S'--'
p160
aS'--'
p161
aS'--'
p162
aS'--'
p163
aS'--'
p164
asS'Net Profit/(Loss) For the Period'
p165
(lp166
S'0.09'
p167
aS'3.97'
p168
aS'0.05'
p169
aS'0.34'
p170
aS'0.55'
p171
asS'a) Pledged/Encumbered'
p172
(dp173
S'- Number of shares (Crores)'
p174
(lp175
S'0.36'
p176
aS'0.36'
p177
aS'0.36'
p178
aS'--'
p179
aS'--'
p180
asS'- Per. of shares (as a % of the total sh. of prom. and promoter group)'
p181
(lp182
S'53.50'
p183
aS'53.50'
p184
aS'89.17'
p185
aS'--'
p186
aS'--'
p187
asS'- Per. of shares (as a % of the total Share Cap. of the company)'
p188
(lp189
S'--'
p190
aS'--'
p191
aS'64.13'
p192
aS'--'
p193
aS'--'
p194
assS'Notes'
p195
(lp196
sS'P/L Before Tax'
p197
(lp198
S'0.53'
p199
aS'4.53'
p200
aS'0.06'
p201
aS'0.26'
p202
aS'0.55'
p203
asS'Excise Duty'
p204
(lp205
S'--'
p206
aS'--'
p207
aS'--'
p208
aS'--'
p209
aS'--'
p210
asS'Depreciation'
p211
(lp212
S'1.84'
p213
aS'0.81'
p214
aS'0.01'
p215
aS'0.01'
p216
aS'--'
p217
asS'Share Holding (%)'
p218
(lp219
S'33.72'
p220
aS'33.72'
p221
aS'92.21'
p222
aS'28.09'
p223
aS'--'
p224
asS'Equity Share Capital'
p225
(lp226
S'10.04'
p227
aS'10.04'
p228
aS'5.55'
p229
aS'5.55'
p230
aS'1.56'
p231
asS'No Of Shares (Crores)'
p232
(lp233
S'0.34'
p234
aS'0.34'
p235
aS'0.51'
p236
aS'0.16'
p237
aS'--'
p238
asS'Provisions And Contingencies'
p239
(lp240
S'--'
p241
aS'--'
p242
aS'--'
p243
aS'--'
p244
aS'--'
p245
asS'Net Sales/Income from operations'
p246
(lp247
S'--'
p248
aS'26.21'
p249
aS'2.03'
p250
aS'1.10'
p251
aS'1.03'
p252
asS'EPS Before Extra Ordinary'
p253
(dp254
g137
(lp255
S'0.09'
p256
aS'3.95'
p257
aS'0.09'
p258
aS'0.61'
p259
aS'--'
p260
asg144
(lp261
S'0.09'
p262
aS'3.95'
p263
aS'0.09'
p264
aS'0.61'
p265
aS'--'
p266
assS'Interest Earned'
p267
(dp268
S'(a) Int. /Disc. on Adv/Bills'
p269
(lp270
sS'(b) Income on Investment'
p271
(lp272
sS'(c) Int. on balances With RBI'
p273
(lp274
sS'(d) Others'
p275
(lp276
ssS'Interest Expended'
p277
(lp278
sS'Exceptional Items'
p279
(lp280
S'--'
p281
aS'--'
p282
aS'--'
p283
aS'--'
p284
aS'--'
p285
asS'Other Income'
p286
(lp287
S'--'
p288
aS'--'
p289
aS'0.03'
p290
aS'0.02'
p291
aS'--'
p292
asS'EXPENDITURE'
p293
(lp294
sS'Increase/Decrease in Stocks'
p295
(lp296
S'--'
p297
aS'--'
p298
aS'--'
p299
aS'--'
p300
aS'--'
p301
asS'b) Non-encumbered'
p302
(dp303
g174
(lp304
S'0.31'
p305
aS'0.31'
p306
aS'0.04'
p307
aS'0.40'
p308
aS'--'
p309
asg181
(lp310
S'46.50'
p311
aS'46.50'
p312
aS'10.83'
p313
aS'100.00'
p314
aS'--'
p315
asg188
(lp316
S'30.82'
p317
aS'30.82'
p318
aS'7.79'
p319
aS'71.91'
p320
aS'--'
p321
assS'index'
p322
I7629
sS'Equity Dividend Rate (%)'
p323
(lp324
S'--'
p325
aS'--'
p326
aS'--'
p327
aS'--'
p328
aS'--'
p329
as.