(dp0
S'Extra Ordinary Items'
p1
(lp2
S'--'
p3
aS'--'
p4
aS'--'
p5
aS'--'
p6
aS'--'
p7
aS'--'
p8
aS'--'
p9
aS'--'
p10
aS'--'
p11
aS'--'
p12
asS'Operating Profit before Provisions and contingencies'
p13
(lp14
sS'Source :  Dion Global Solutions Limited '
p15
(lp16
sS'Admin. And Selling Expenses'
p17
(lp18
S'0.44'
p19
aS'0.30'
p20
aS'0.41'
p21
aS'0.17'
p22
aS'0.12'
p23
aS'--'
p24
aS'--'
p25
aS'--'
p26
aS'--'
p27
aS'--'
p28
asS'Public Share Holding'
p29
(lp30
sS'Employees Cost'
p31
(lp32
S'1.79'
p33
aS'1.60'
p34
aS'1.43'
p35
aS'1.00'
p36
aS'0.63'
p37
aS'6.41'
p38
aS'5.72'
p39
aS'3.85'
p40
aS'4.97'
p41
aS'4.38'
p42
asS'Tax'
p43
(lp44
S'0.10'
p45
aS'--'
p46
aS'0.07'
p47
aS'0.05'
p48
aS'0.42'
p49
aS'0.43'
p50
aS'0.20'
p51
aS'0.24'
p52
aS'0.22'
p53
aS'0.11'
p54
asS'P/L Before Int., Excpt. Items & Tax'
p55
(lp56
S'0.34'
p57
aS'0.36'
p58
aS'0.28'
p59
aS'0.26'
p60
aS'0.64'
p61
aS'2.48'
p62
aS'1.80'
p63
aS'1.43'
p64
aS'1.38'
p65
aS'1.20'
p66
asS'Purchase of Traded Goods'
p67
(lp68
S'--'
p69
aS'--'
p70
aS'--'
p71
aS'--'
p72
aS'--'
p73
aS'--'
p74
aS'--'
p75
aS'--'
p76
aS'--'
p77
aS'--'
p78
asS'month'
p79
(lp80
S"Jun '15"
p81
aS"Dec '14"
p82
aS"Sep '14"
p83
aS"Jun '14"
p84
aS"Mar '14"
p85
aS"Dec '13"
p86
aS"Sep '13"
p87
aS"Jun '13"
p88
aS"Mar '13"
p89
aS"Dec '12"
p90
asS'Reserves Excluding Revaluation Reserves'
p91
(lp92
S'--'
p93
aS'--'
p94
aS'--'
p95
aS'--'
p96
aS'--'
p97
aS'--'
p98
aS'--'
p99
aS'--'
p100
aS'--'
p101
aS'--'
p102
asS'Power & Fuel'
p103
(lp104
S'--'
p105
aS'--'
p106
aS'--'
p107
aS'--'
p108
aS'--'
p109
aS'--'
p110
aS'--'
p111
aS'--'
p112
aS'--'
p113
aS'--'
p114
asS'Promoters and Promoter Group Shareholding'
p115
(lp116
sS'Interest'
p117
(lp118
S'0.00'
p119
aS'0.08'
p120
aS'0.06'
p121
aS'0.08'
p122
aS'0.20'
p123
aS'0.08'
p124
aS'0.07'
p125
aS'0.04'
p126
aS'--'
p127
aS'--'
p128
asS'P/L After Tax from Ordinary Activities'
p129
(lp130
S'0.23'
p131
aS'0.28'
p132
aS'0.15'
p133
aS'0.12'
p134
aS'0.02'
p135
aS'1.97'
p136
aS'1.54'
p137
aS'1.15'
p138
aS'1.16'
p139
aS'1.09'
p140
asS'Prior Year Adjustments'
p141
(lp142
S'--'
p143
aS'--'
p144
aS'--'
p145
aS'--'
p146
aS'--'
p147
aS'--'
p148
aS'--'
p149
aS'--'
p150
aS'--'
p151
aS'--'
p152
asS'R & D Expenses'
p153
(lp154
S'--'
p155
aS'--'
p156
aS'--'
p157
aS'--'
p158
aS'--'
p159
aS'--'
p160
aS'--'
p161
aS'--'
p162
aS'--'
p163
aS'--'
p164
asS'P/L Before Other Inc. , Int., Excpt. Items & Tax'
p165
(lp166
S'0.26'
p167
aS'0.36'
p168
aS'0.28'
p169
aS'0.26'
p170
aS'0.64'
p171
aS'2.48'
p172
aS'1.80'
p173
aS'1.43'
p174
aS'1.38'
p175
aS'1.20'
p176
asS'Consumption of Raw Materials'
p177
(lp178
S'--'
p179
aS'--'
p180
aS'--'
p181
aS'--'
p182
aS'--'
p183
aS'--'
p184
aS'--'
p185
aS'--'
p186
aS'--'
p187
aS'--'
p188
asS'Total Income From Operations'
p189
(lp190
S'3.97'
p191
aS'3.34'
p192
aS'3.19'
p193
aS'2.50'
p194
aS'3.20'
p195
aS'10.37'
p196
aS'9.04'
p197
aS'6.58'
p198
aS'10.50'
p199
aS'6.34'
p200
asS'Other Operating Income'
p201
(lp202
S'--'
p203
aS'--'
p204
aS'--'
p205
aS'--'
p206
aS'--'
p207
aS'--'
p208
aS'--'
p209
aS'--'
p210
aS'0.07'
p211
aS'--'
p212
asS'Other Expenses'
p213
(lp214
S'--'
p215
aS'--'
p216
aS'--'
p217
aS'--'
p218
aS'--'
p219
aS'0.85'
p220
aS'0.87'
p221
aS'0.66'
p222
aS'3.43'
p223
aS'0.72'
p224
asS'EPS After Extra Ordinary'
p225
(dp226
S'Basic EPS'
p227
(lp228
S'0.22'
p229
aS'0.20'
p230
aS'0.15'
p231
aS'0.12'
p232
aS'0.02'
p233
aS'1.96'
p234
aS'1.53'
p235
aS'1.15'
p236
aS'1.15'
p237
aS'1.08'
p238
asS'Diluted EPS'
p239
(lp240
S'0.22'
p241
aS'0.20'
p242
aS'0.15'
p243
aS'0.12'
p244
aS'0.02'
p245
aS'1.96'
p246
aS'1.53'
p247
aS'1.15'
p248
aS'1.15'
p249
aS'1.08'
p250
assS'P/L Before Exceptional Items & Tax'
p251
(lp252
S'0.33'
p253
aS'0.28'
p254
aS'0.22'
p255
aS'0.18'
p256
aS'0.44'
p257
aS'2.40'
p258
aS'1.74'
p259
aS'1.39'
p260
aS'1.38'
p261
aS'1.20'
p262
asS'Exp. Capitalised'
p263
(lp264
S'--'
p265
aS'--'
p266
aS'--'
p267
aS'--'
p268
aS'--'
p269
aS'--'
p270
aS'--'
p271
aS'--'
p272
aS'--'
p273
aS'--'
p274
asS'Net Profit/(Loss) For the Period'
p275
(lp276
S'0.23'
p277
aS'0.28'
p278
aS'0.15'
p279
aS'0.12'
p280
aS'0.02'
p281
aS'1.97'
p282
aS'1.54'
p283
aS'1.15'
p284
aS'1.16'
p285
aS'1.09'
p286
asS'a) Pledged/Encumbered'
p287
(dp288
S'- Number of shares (Crores)'
p289
(lp290
S'--'
p291
aS'--'
p292
aS'--'
p293
aS'--'
p294
aS'0.36'
p295
aS'0.36'
p296
aS'0.36'
p297
aS'0.36'
p298
aS'0.36'
p299
aS'0.36'
p300
asS'- Per. of shares (as a % of the total sh. of prom. and promoter group)'
p301
(lp302
S'--'
p303
aS'--'
p304
aS'--'
p305
aS'--'
p306
aS'53.50'
p307
aS'53.50'
p308
aS'53.50'
p309
aS'53.50'
p310
aS'53.50'
p311
aS'53.50'
p312
asS'- Per. of shares (as a % of the total Share Cap. of the company)'
p313
(lp314
S'--'
p315
aS'--'
p316
aS'--'
p317
aS'--'
p318
aS'--'
p319
aS'--'
p320
aS'--'
p321
aS'--'
p322
aS'--'
p323
aS'--'
p324
assS'Notes'
p325
(lp326
sS'P/L Before Tax'
p327
(lp328
S'0.33'
p329
aS'0.28'
p330
aS'0.22'
p331
aS'0.18'
p332
aS'0.44'
p333
aS'2.40'
p334
aS'1.74'
p335
aS'1.39'
p336
aS'1.38'
p337
aS'1.20'
p338
asS'Excise Duty'
p339
(lp340
S'--'
p341
aS'--'
p342
aS'--'
p343
aS'--'
p344
aS'--'
p345
aS'--'
p346
aS'--'
p347
aS'--'
p348
aS'--'
p349
aS'--'
p350
asS'Depreciation'
p351
(lp352
S'1.47'
p353
aS'1.08'
p354
aS'1.07'
p355
aS'1.07'
p356
aS'1.81'
p357
aS'0.63'
p358
aS'0.63'
p359
aS'0.63'
p360
aS'0.72'
p361
aS'0.03'
p362
asS'Share Holding (%)'
p363
(lp364
S'38.04'
p365
aS'33.72'
p366
aS'33.72'
p367
aS'33.72'
p368
aS'33.72'
p369
aS'33.72'
p370
aS'33.72'
p371
aS'33.72'
p372
aS'33.72'
p373
aS'33.72'
p374
asS'Equity Share Capital'
p375
(lp376
S'10.74'
p377
aS'10.04'
p378
aS'10.04'
p379
aS'10.04'
p380
aS'10.04'
p381
aS'10.04'
p382
aS'10.04'
p383
aS'10.04'
p384
aS'10.04'
p385
aS'10.04'
p386
asS'No Of Shares (Crores)'
p387
(lp388
S'0.41'
p389
aS'0.34'
p390
aS'0.34'
p391
aS'0.34'
p392
aS'0.34'
p393
aS'0.34'
p394
aS'0.34'
p395
aS'0.34'
p396
aS'0.34'
p397
aS'0.34'
p398
asS'Provisions And Contingencies'
p399
(lp400
S'--'
p401
aS'--'
p402
aS'--'
p403
aS'--'
p404
aS'--'
p405
aS'--'
p406
aS'--'
p407
aS'--'
p408
aS'--'
p409
aS'--'
p410
asS'Net Sales/Income from operations'
p411
(lp412
S'3.97'
p413
aS'3.34'
p414
aS'3.19'
p415
aS'2.50'
p416
aS'3.20'
p417
aS'10.37'
p418
aS'9.04'
p419
aS'6.58'
p420
aS'10.43'
p421
aS'6.34'
p422
asS'EPS Before Extra Ordinary'
p423
(dp424
g227
(lp425
S'0.22'
p426
aS'0.20'
p427
aS'0.15'
p428
aS'0.12'
p429
aS'0.02'
p430
aS'1.96'
p431
aS'1.53'
p432
aS'1.15'
p433
aS'1.15'
p434
aS'1.08'
p435
asg239
(lp436
S'0.22'
p437
aS'0.20'
p438
aS'0.15'
p439
aS'0.12'
p440
aS'0.02'
p441
aS'1.96'
p442
aS'1.53'
p443
aS'1.15'
p444
aS'1.15'
p445
aS'1.08'
p446
assS'Interest Earned'
p447
(dp448
S'(a) Int. /Disc. on Adv/Bills'
p449
(lp450
sS'(b) Income on Investment'
p451
(lp452
sS'(c) Int. on balances With RBI'
p453
(lp454
sS'(d) Others'
p455
(lp456
ssS'Interest Expended'
p457
(lp458
sS'Exceptional Items'
p459
(lp460
S'--'
p461
aS'--'
p462
aS'--'
p463
aS'--'
p464
aS'--'
p465
aS'--'
p466
aS'--'
p467
aS'--'
p468
aS'--'
p469
aS'--'
p470
asS'Other Income'
p471
(lp472
S'0.08'
p473
aS'--'
p474
aS'--'
p475
aS'--'
p476
aS'--'
p477
aS'--'
p478
aS'--'
p479
aS'--'
p480
aS'--'
p481
aS'--'
p482
asS'EXPENDITURE'
p483
(lp484
sS'Increase/Decrease in Stocks'
p485
(lp486
S'--'
p487
aS'--'
p488
aS'--'
p489
aS'--'
p490
aS'--'
p491
aS'--'
p492
aS'--'
p493
aS'--'
p494
aS'--'
p495
aS'--'
p496
asS'b) Non-encumbered'
p497
(dp498
g289
(lp499
S'0.67'
p500
aS'0.67'
p501
aS'0.67'
p502
aS'0.67'
p503
aS'0.31'
p504
aS'0.31'
p505
aS'0.31'
p506
aS'0.31'
p507
aS'0.31'
p508
aS'0.31'
p509
asg301
(lp510
S'100.00'
p511
aS'100.00'
p512
aS'100.00'
p513
aS'100.00'
p514
aS'46.50'
p515
aS'46.50'
p516
aS'46.50'
p517
aS'46.50'
p518
aS'46.50'
p519
aS'46.50'
p520
asg313
(lp521
S'61.96'
p522
aS'66.28'
p523
aS'66.28'
p524
aS'66.28'
p525
aS'30.82'
p526
aS'30.82'
p527
aS'30.82'
p528
aS'30.82'
p529
aS'30.82'
p530
aS'30.82'
p531
assS'index'
p532
I7629
sS'Equity Dividend Rate (%)'
p533
(lp534
S'--'
p535
aS'--'
p536
aS'--'
p537
aS'--'
p538
aS'--'
p539
aS'--'
p540
aS'--'
p541
aS'--'
p542
aS'--'
p543
aS'--'
p544
as.