(dp0
S''
p1
I4399
sS'524494'
p2
I1773
sS'504180'
p3
I3704
sS'ESTER'
p4
I1087
sS'533629'
p5
I3867
sS'FLATPROD'
p6
I1165
sS'INDOKEM'
p7
I1690
sS'LAOPALA'
p8
I2134
sS'500540'
p9
I2958
sS'532342'
p10
I1783
sS'ITDCEM'
p11
I1785
sS'501111'
p12
I1322
sS'523054'
p13
I524
sS'532344'
p14
I3626
sS'HDFC'
p15
I1561
sS'505585'
p16
I2092
sS'BEL'
p17
I491
sS'522289'
p18
I1610
sS'RAMANEWS'
p19
I3093
sS'KOTAKBANK'
p20
I2081
sS'514448'
p21
I1923
sS'TARMAT'
p22
I3874
sS'514446'
p23
I2175
sS'514440'
p24
I992
sS'514442'
p25
I482
sS'519174'
p26
I279
sS'ELGIEQUIP'
p27
I1028
sS'HARITASEAT'
p28
I1454
sS'531499'
p29
I3854
sS'531496'
p30
I2708
sS'531497'
p31
I2241
sS'531494'
p32
I2573
sS'531495'
p33
I556
sS'531492'
p34
I2856
sS'506460'
p35
I3564
sS'COROENGG'
p36
I805
sS'532286'
p37
I1877
sS'532287'
p38
I1061
sS'532284'
p39
I3921
sS'532285'
p40
I1276
sS'532282'
p41
I179
sS'532283'
p42
I1935
sS'532281'
p43
I1476
sS'PUNJABCHEM'
p44
I3008
sS'MONSANTO'
p45
I2448
sS'513583'
p46
I3411
sS'506605'
p47
I2913
sS'VSTIND'
p48
I4284
sS'537483'
p49
I3033
sS'HATHWAY'
p50
I1465
sS'514378'
p51
I4362
sS'VAIBHAVGBL'
p52
I4166
sS'SEINV'
p53
I3424
sS'UNITY'
p54
I4117
sS'513059'
p55
I1374
sS'NETWORK18'
p56
I2603
sS'590059'
p57
I516
sS'530723'
p58
I311
sS'EDL'
p59
I1047
sS'NAHARINDUS'
p60
I2542
sS'LML'
p61
I2192
sS'PDSMFL'
p62
I2771
sS'534612'
p63
I5
sS'JUSTDIAL'
p64
I1797
sS'533393'
p65
I3922
sS'522152'
p66
I3633
sS'522150'
p67
I68
sS'ABAN'
p68
I24
sS'533399'
p69
I2814
sS'533398'
p70
I2505
sS'506230'
p71
I115
sS'530621'
p72
I107
sS'530627'
p73
I4246
sS'521163'
p74
I4395
sS'521161'
p75
I3693
sS'DPL'
p76
I935
sS'521167'
p77
I218
sS'512185'
p78
I1770
sS'LT'
p79
I2156
sS'509496'
p80
I1785
sS'RENUKA'
p81
I3530
sS'509499'
p82
I683
sS'HINDOILEXP'
p83
I1529
sS'511571'
p84
I3636
sS'ICIL'
p85
I1680
sS'PNC'
p86
I2980
sS'PNB'
p87
I3010
sS'511750'
p88
I276
sS'INDTERRAIN'
p89
I1670
sS'511756'
p90
I36
sS'511754'
p91
I3460
sS'503722'
p92
I425
sS'532916'
p93
I426
sS'523209'
p94
I2620
sS'532914'
p95
I235
sS'532915'
p96
I3176
sS'532912'
p97
I2597
sS'532913'
p98
I747
sS'532910'
p99
I195
sS'532443'
p100
I691
sS'523200'
p101
I758
sS'523204'
p102
I24
sS'532918'
p103
I3129
sS'523207'
p104
I1927
sS'531934'
p105
I3812
sS'531937'
p106
I441
sS'531936'
p107
I554
sS'531930'
p108
I3393
sS'531932'
p109
I695
sS'531939'
p110
I1273
sS'AHMEDFORGE'
p111
I-1
sS'526355'
p112
I977
sS'532709'
p113
I3172
sS'532708'
p114
I1433
sS'532702'
p115
I1420
sS'MRF'
p116
I2475
sS'532700'
p117
I1064
sS'532707'
p118
I986
sS'532706'
p119
I1728
sS'532705'
p120
I1805
sS'500450'
p121
I2473
sS'500456'
p122
I2833
sS'500458'
p123
I2874
sS'500459'
p124
I2986
sS'SANOFI'
p125
I3265
sS'IZMO'
p126
I2194
sS'555555'
p127
I2993
sS'527005'
p128
I3521
sS'527001'
p129
I277
sS'505397'
p130
I3931
sS'524264'
p131
I4090
sS'M100'
p132
I2464
sS'MORARJETEX'
p133
I-1
sS'533470'
p134
I3259
sS'533477'
p135
I1056
sS'SIGNET'
p136
I3573
sS'PARACABLES'
p137
I2812
sS'526779'
p138
I1505
sS'APIL'
p139
I-1
sS'CHETTINAD'
p140
I721
sS'ADANIPORTS'
p141
I2495
sS'509709'
p142
I1756
sS'KOTAKGOLD'
p143
I2080
sS'506858'
p144
I1412
sS'APOLLOHOSP'
p145
I222
sS'506854'
p146
I3895
sS'AARTIDRUGS'
p147
I21
sS'506852'
p148
I3007
sS'517230'
p149
I2785
sS'505368'
p150
I3191
sS'517236'
p151
I641
sS'RELIGARE'
p152
I3176
sS'IDBI'
p153
I1601
sS'MCDHOLDING'
p154
I2357
sS'530065'
p155
I1780
sS'ZYDUSWELL'
p156
I4400
sS'MANJEERA'
p157
I2311
sS'UNITECH'
p158
I4104
sS'NAUKRI'
p159
I2531
sS'508954'
p160
I3368
sS'523586'
p161
I1671
sS'523856'
p162
I3999
sS'523850'
p163
I367
sS'512068'
p164
I885
sS'512065'
p165
I2477
sS'512067'
p166
I4262
sS'512062'
p167
I3372
sS'CROMPGREAV'
p168
I830
sS'533891'
p169
I3170
sS'SHARONBIO'
p170
I3474
sS'LAKSHVILAS'
p171
I2147
sS'RATNAMANI'
p172
I3134
sS'531728'
p173
I175
sS'531720'
p174
I143
sS'531723'
p175
I598
sS'531724'
p176
I1565
sS'531726'
p177
I2797
sS'531727'
p178
I2381
sS'DYNASYS'
p179
I-1
sS'FACT'
p180
I1140
sS'CRANESSOFT'
p181
I819
sS'507435'
p182
I2033
sS'507438'
p183
I1605
sS'PENINLAND'
p184
I2851
sS'534976'
p185
I4154
sS'MINDACORP'
p186
I2220
sS'MODIALKALI'
p187
I2234
sS'533270'
p188
I442
sS'533271'
p189
I290
sS'533272'
p190
I775
sS'533273'
p191
I2688
sS'533274'
p192
I2964
sS'526981'
p193
I3541
sS'533276'
p194
I604
sS'526983'
p195
I291
sS'533278'
p196
I765
sS'RUCHINFRA'
p197
I3252
sS'BRANDHOUSE'
p198
I590
sS'J&KBANK;'
p199
I1829
sS'SARKSYS'
p200
I-1
sS'526185'
p201
I1758
sS'526187'
p202
I3877
sS'HMVL'
p203
I1527
sS'NIITTECH'
p204
I2625
sS'INDHOTEL'
p205
I1662
sS'533644'
p206
I4072
sS'VALECHAENG'
p207
I4169
sS'BARTRONICS'
p208
I429
sS'500840'
p209
I1011
sS'ALCHEM'
p210
I117
sS'BINANIIND'
p211
I523
sS'SEINVEST'
p212
I-1
sS'504701'
p213
I1335
sS'504704'
p214
I1291
sS'506016'
p215
I1826
sS'PSL'
p216
I2995
sS'PSB'
p217
I3006
sS'523445'
p218
I3166
sS'515043'
p219
I3333
sS'RAJTV'
p220
I3067
sS'BELLARYSTL'
p221
I447
sS'531129'
p222
I1623
sS'531126'
p223
I4251
sS'531127'
p224
I1058
sS'TATAMTRDVR'
p225
I3913
sS'531120'
p226
I2836
sS'523449'
p227
I3475
sS'KILBUNENGG'
p228
I2039
sS'532116'
p229
I4358
sS'532117'
p230
I2901
sS'532114'
p231
I118
sS'532113'
p232
I597
sS'537985'
p233
I1717
sS'NOL'
p234
I2560
sS'SRF'
p235
I3686
sS'BPL'
p236
I585
sS'523465'
p237
I1630
sS'523467'
p238
I1812
sS'ASTERSILI'
p239
I321
sS'SMSPHARMA '
p240
I-1
sS'JAGSNPHARM'
p241
I1808
sS'500660'
p242
I1294
sS'501391'
p243
I4327
sS'WYETH'
p244
I4354
sS'532633'
p245
I138
sS'COREEDUTEC'
p246
I803
sS'532631'
p247
I1127
sS'513216'
p248
I4141
sS'SPANCO'
p249
I3659
sS'500253'
p250
I2173
sS'530299'
p251
I2088
sS'HERITGFOOD'
p252
I1488
sS'500254'
p253
I4073
sS'530295'
p254
I3525
sS'530291'
p255
I3062
sS'500255'
p256
I2192
sS'HAVELLS'
p257
I1467
sS'SUNTECK'
p258
I3795
sS'UNIPHOS'
p259
I-1
sS'536960'
p260
I2464
sS'CPSEETF'
p261
I631
sS'534185'
p262
I2222
sS'534184'
p263
I2514
sS'530743'
p264
I1267
sS'AVENTIS'
p265
I-1
sS'530745'
p266
I2193
sS'530747'
p267
I1675
sS'ALPA'
p268
I142
sS'RJL'
p269
I3185
sS'534675'
p270
I2769
sS'534674'
p271
I847
sS'VITALCOMM'
p272
I4268
sS'WABAG'
p273
I4297
sS'BALAMINES'
p274
I403
sS'BLUECHIP'
p275
I554
sS'ROMAN'
p276
I-1
sS'530609'
p277
I662
sS'530605'
p278
I1377
sS'530601'
p279
I1807
sS'517170'
p280
I2066
sS'PRAKASH'
p281
I2937
sS'CEATLTD'
p282
I672
sS'504959'
p283
I3744
sS'538666'
p284
I3298
sS'NUCENT'
p285
I-1
sS'600300'
p286
I1355
sS'519532'
p287
I309
sS'512307'
p288
I4070
sS'512301'
p289
I699
sS'512309'
p290
I3229
sS'KAVVERITEL'
p291
I1993
sS'MAFATLAIND'
p292
I2251
sS'SUDITIND'
p293
I-1
sS'523260'
p294
I2848
sS'523261'
p295
I4202
sS'PIONDIST'
p296
I2887
sS'523269'
p297
I75
sS'532930'
p298
I473
sS'532931'
p299
I609
sS'532932'
p300
I2298
sS'532933'
p301
I2927
sS'532934'
p302
I2950
sS'532935'
p303
I241
sS'ENIL'
p304
I1064
sS'532937'
p305
I30
sS'532938'
p306
I1202
sS'532939'
p307
I3174
sS'ASHOKALCO'
p308
I288
sS'500033'
p309
I1173
sS'531919'
p310
I2480
sS'531918'
p311
I1516
sS'531917'
p312
I4067
sS'531913'
p313
I1339
sS'531911'
p314
I1225
sS'531910'
p315
I3994
sS'IGOLD'
p316
I1598
sS'CAPF'
p317
I1202
sS'NHPC'
p318
I2617
sS'590088'
p319
I62
sS'590089'
p320
I697
sS'AANJANEYA'
p321
I-1
sS'590080'
p322
I996
sS'590081'
p323
I588
sS'590082'
p324
I2195
sS'590083'
p325
I2346
sS'590084'
p326
I1967
sS'590085'
p327
I1305
sS'590086'
p328
I2742
sS'590087'
p329
I1031
sS'500477'
p330
I289
sS'SATYAMCOMP'
p331
I3401
sS'LAKSHMIMIL'
p332
I2145
sS'500472'
p333
I3607
sS'507300'
p334
I3137
sS'511630'
p335
I3346
sS'508494'
p336
I4306
sS'526373'
p337
I742
sS'TFCILTD'
p338
I4004
sS'526371'
p339
I2652
sS'533189'
p340
I1316
sS'526379'
p341
I2076
sS'533181'
p342
I1763
sS'523598'
p343
I3492
sS'524288'
p344
I97
sS'RAMAPETRO'
p345
I3095
sS'524280'
p346
I2077
sS'533451'
p347
I1981
sS'503873'
p348
I2982
sS'504392'
p349
I2494
sS'SALONACOT'
p350
I3340
sS'504398'
p351
I3605
sS'530199'
p352
I3959
sS'530197'
p353
I387
sS'530191'
p354
I736
sS'ARCHIDPLY'
p355
I233
sS'501700'
p356
I1672
sS'509728'
p357
I512
sS'514030'
p358
I893
sS'514034'
p359
I1852
sS'514036'
p360
I2205
sS'TEXMOPIPES'
p361
I3950
sS'VASWANI'
p362
I4147
sS'517214'
p363
I3309
sS'509627'
p364
I1522
sS'523876'
p365
I1922
sS'IONEXCHANG'
p366
I1771
sS'523874'
p367
I2948
sS'523872'
p368
I2257
sS'531352'
p369
I2850
sS'NEOSACK'
p370
I-1
sS'531359'
p371
I3551
sS'531358'
p372
I727
sS'523878'
p373
I4003
sS'532325'
p374
I4268
sS'532324'
p375
I745
sS'PARAPRINT'
p376
I2814
sS'532326'
p377
I1745
sS'532321'
p378
I639
sS'532320'
p379
I2616
sS'532323'
p380
I3495
sS'532322'
p381
I1020
sS'513683'
p382
I2613
sS'LAKSELECON'
p383
I2141
sS'532329'
p384
I870
sS'513685'
p385
I2492
sS'FGPIND'
p386
I1141
sS'520111'
p387
I3134
sS'520113'
p388
I4211
sS'520115'
p389
I589
sS'520119'
p390
I346
sS'ESTCSTSTEL'
p391
I995
sS'GICHSGFIN'
p392
I1281
sS'HINDUJAVEN'
p393
I1514
sS'MADHAV'
p394
I2240
sS'KNRCON'
p395
I2069
sS'NEPCMICON'
p396
I2594
sS'KCPSUGIND'
p397
I2000
sS'506164'
p398
I599
sS'531743'
p399
I1540
sS'531746'
p400
I2936
sS'506162'
p401
I1095
sS'ATLASCYCLE'
p402
I328
sS'530581'
p403
I1013
sS'508933'
p404
I4321
sS'HINDCOMPOS'
p405
I1518
sS'508939'
p406
I555
sS'PSTL'
p407
I3017
sS'502933'
p408
I1989
sS'507410'
p409
I4301
sS'502937'
p410
I2019
sS'502420'
p411
I2733
sS'530721'
p412
I192
sS'522059'
p413
I1635
sS'DBSTOCKBRO'
p414
I876
sS'533218'
p415
I1038
sS'533219'
p416
I321
sS'BRFL'
p417
I576
sS'526614'
p418
I1110
sS'533213'
p419
I1193
sS'533210'
p420
I2103
sS'533211'
p421
I2809
sS'526610'
p422
I1622
sS'533217'
p423
I1527
sS'526612'
p424
I557
sS'FORTIS'
p425
I1174
sS'PDUMJEIND'
p426
I3000
sS'MONTECARLO'
p427
I2227
sS'BIHARSPONG'
p428
I515
sS'DION'
p429
I-1
sS'505196'
p430
I3968
sS'MUNJALSHOW'
p431
I2497
sS'ARVIND'
p432
I268
sS'HINDNATGLS'
p433
I1536
sS'PRECWIRE'
p434
I2951
sS'UTTAMVALUE'
p435
I4073
sS'EXCEL'
p436
I1105
sS'SPICEMOBI'
p437
I3309
sS'REPRO'
p438
I3186
sS'511654'
p439
I3763
sS'511652'
p440
I3091
sS'MANINDS'
p441
I2296
sS'511658'
p442
I2600
sS'SUPRAJIT'
p443
I3807
sS'IBPOW'
p444
I-1
sS'SINTEX'
p445
I3596
sS'JINDALSAW'
p446
I1875
sS'523019'
p447
I563
sS'INTEGRFIN'
p448
I1738
sS'EMMBI'
p449
I1044
sS'523011'
p450
I4312
sS'SUNTV'
p451
I3779
sS'531109'
p452
I1778
sS'531102'
p453
I3816
sS'531106'
p454
I-1
sS'500399'
p455
I3726
sS'532139'
p456
I1217
sS'532130'
p457
I-1
sS'500390'
p458
I3168
sS'532133'
p459
I1608
sS'532134'
p460
I419
sS'500394'
p461
I3630
sS'ANDHRAPET'
p462
I188
sS'DABUR'
p463
I860
sS'ANIKINDS'
p464
I193
sS'JBMA'
p465
I1853
sS'500135'
p466
I1085
sS'500134'
p467
I1081
sS'500136'
p468
I1087
sS'500130'
p469
I1029
sS'500645'
p470
I891
sS'500132'
p471
I1048
sS'531719'
p472
I477
sS'500139'
p473
I1134
sS'JSWSTEEL'
p474
I1911
sS'524546'
p475
I3451
sS'TFL'
p476
I4021
sS'524542'
p477
I3767
sS'524540'
p478
I3431
sS'NCC'
p479
I2536
sS'SERVALL'
p480
I3442
sS'531716'
p481
I3202
sS'506390'
p482
I755
sS'500375'
p483
I3364
sS'506395'
p484
I806
sS'531713'
p485
I560
sS'HTMEDIA'
p486
I1568
sS'BAFNAPHARM'
p487
I384
sS'517973'
p488
I955
sS'CHEMPLAST'
p489
I717
sS'ACE'
p490
I51
sS'WEIZMANIND'
p491
I4312
sS'505250'
p492
I1278
sS'INDORAMA'
p493
I1684
sS'538961'
p494
I1207
sS'JAINSTUDIO'
p495
I1817
sS'VAKRANSOFT'
p496
I-1
sS'513097'
p497
I3501
sS'BASF'
p498
I431
sS'524136'
p499
I2849
sS'530765'
p500
I910
sS'STANDRDBAT'
p501
I3704
sS'530769'
p502
I4207
sS'524138'
p503
I2281
sS'ALBRMORARJ'
p504
I115
sS'LUMAXIND'
p505
I2210
sS'SITICABLE'
p506
I4343
sS'L&TFH;'
p507
I2132
sS'ICCNX100'
p508
I1580
sS'ZANDUREALT'
p509
I4377
sS'511577'
p510
I3403
sS' 570002'
p511
I-1
sS'GPPL'
p512
I1413
sS'FLFL'
p513
I1115
sS'FTCSF3YGRO'
p514
I1196
sS'AFTEK'
p515
I81
sS'514302'
p516
I4245
sS'511539'
p517
I4220
sS'511533'
p518
I3326
sS'513460'
p519
I2264
sS'511535'
p520
I2581
sS'512329'
p521
I1833
sS'CAMLINFINE'
p522
I647
sS'HINDALCO'
p523
I1510
sS'502090'
p524
I3323
sS'531689'
p525
I1673
sS'531688'
p526
I2979
sS'531687'
p527
I1988
sS'531686'
p528
I78
sS'531683'
p529
I203
sS'531682'
p530
I665
sS'531681'
p531
I171
sS'531680'
p532
I2352
sS'530889'
p533
I129
sS'523248'
p534
I2237
sS'530883'
p535
I3797
sS'530881'
p536
I686
sS'530887'
p537
I1626
sS'ESSELPACK'
p538
I1085
sS'530885'
p539
I1823
sS'532488'
p540
I950
sS'532489'
p541
I269
sS'ABCIL'
p542
I65
sS'532959'
p543
I1233
sS'502893'
p544
I2586
sS'532952'
p545
I2541
sS'532953'
p546
I4160
sS'532482'
p547
I1352
sS'532483'
p548
I653
sS'532956'
p549
I3629
sS'532957'
p550
I1318
sS'532486'
p551
I2906
sS'532955'
p552
I3258
sS'SITASHREE'
p553
I3603
sS'BELLCERATL'
p554
I446
sS'ANKURDRUGS'
p555
I203
sS'531979'
p556
I1506
sS'531978'
p557
I159
sS'531972'
p558
I2254
sS'531977'
p559
I709
sS'VISESHINFO'
p560
I4255
sS'SELMCL'
p561
I3434
sS'507609'
p562
I2702
sS'TRIVENI'
p563
I4042
sS'522267'
p564
I4198
sS'522261'
p565
I959
sS'522263'
p566
I1890
sS'521076'
p567
I169
sS'521070'
p568
I141
sS'KRISNAFILA'
p569
I2100
sS'PUNJLLOYD'
p570
I3005
sS'500150'
p571
I1178
sS'524735'
p572
I1495
sS'524737'
p573
I460
sS'524731'
p574
I1857
sS'CESC'
p575
I693
sS'LIQUIDBEES'
p576
I2185
sS'SELAN'
p577
I3435
sS'526397'
p578
I145
sS'ANDHRABANK'
p579
I186
sS'APLLTD'
p580
I121
sS'TUBEINVEST'
p581
I4048
sS'ORIENTCARB'
p582
I2736
sS'AMRUTANJAN'
p583
I177
sS'KANSAINER'
p584
I1974
sS'SUBEX'
p585
I3751
sS'PAPERPROD'
p586
I2807
sS'GUJFLUORO'
p587
I1396
sS'LLOYDFIN'
p588
I2189
sS'SABTN'
p589
I3689
sS'514010'
p590
I1498
sS'511758'
p591
I2316
sS'^BSESN'
p592
I605
sS'WEIZFOREX'
p593
I4311
sS'TULSYAN'
p594
I4054
sS'LOKESHMACH'
p595
I2197
sS'523810'
p596
I1949
sS'532917'
p597
I4188
sS'531374'
p598
I3313
sS'531373'
p599
I3870
sS'531370'
p600
I3660
sS'532447'
p601
I3635
sS'532309'
p602
I148
sS'532308'
p603
I1067
sS'532307'
p604
I2378
sS'532440'
p605
I2474
sS'532305'
p606
I1631
sS'532304'
p607
I2063
sS'532303'
p608
I1740
sS'532301'
p609
I3905
sS'532441'
p610
I3059
sS'VIPIND'
p611
I4243
sS'532442'
p612
I4116
sS'532911'
p613
I2824
sS'520139'
p614
I1806
sS'506985'
p615
I4066
sS'506981'
p616
I561
sS'520131'
p617
I767
sS'MANGLMCEM'
p618
I2303
sS'532839'
p619
I948
sS'532919'
p620
I136
sS'RPGLIFE'
p621
I3241
sS'526423'
p622
I2102
sS'SAISERVICE'
p623
I3330
sS'KILITCH'
p624
I2041
sS'531768'
p625
I2912
sS'531769'
p626
I2866
sS'506186'
p627
I1228
sS'506184'
p628
I1965
sS'531760'
p629
I1200
sS'531761'
p630
I180
sS'531762'
p631
I4125
sS'526807'
p632
I3427
sS'526801'
p633
I2995
sS'PBAINFRA'
p634
I2842
sS'PENTACOMMU'
p635
I2856
sS'524091'
p636
I50
sS'HITECHPLAS'
p637
I1547
sS'517096'
p638
I219
sS'508918'
p639
I1368
sS'FSL'
p640
I1163
sS'MUTHOOTFIN'
p641
I2505
sS'533230'
p642
I1478
sS'505982'
p643
I1512
sS'533941'
p644
I3871
sS'522073'
p645
I1493
sS'522074'
p646
I1028
sS'533239'
p647
I2938
sS'RAMAPHOSP'
p648
I3096
sS'526941'
p649
I4167
sS'526945'
p650
I4071
sS'NATHPULP'
p651
I2555
sS'526947'
p652
I2134
sS'KALYANIFRG'
p653
I1955
sS'BALAJIDIST'
p654
I404
sS'526492'
p655
I3003
sS'526490'
p656
I2943
sS'526496'
p657
I3248
sS'526494'
p658
I2989
sS'511493'
p659
I4196
sS'NATHSEED'
p660
I-1
sS'UCOBANK'
p661
I4077
sS'519475'
p662
I734
sS'530419'
p663
I3770
sS'AUROPHARMA'
p664
I337
sS'EXCELINDUS'
p665
I1104
sS'519479'
p666
I2706
sS'502407'
p667
I2555
sS'502405'
p668
I2509
sS'M&MFIN;'
p669
I2279
sS'NAVNETEDUL'
p670
I2574
sS'511676'
p671
I1281
sS'532545'
p672
I1187
sS'500800'
p673
I3909
sS'532541'
p674
I2625
sS'532540'
p675
I3907
sS'AHLUCONT'
p676
I90
sS'532542'
p677
I828
sS'523385'
p678
I2633
sS'523384'
p679
I2261
sS'523387'
p680
I4039
sS'517449'
p681
I2256
sS'526237'
p682
I2456
sS'526235'
p683
I2382
sS'ZEEMEDIA'
p684
I4381
sS'509196'
p685
I2423
sS'530927'
p686
I1461
sS'523031'
p687
I16
sS'523030'
p688
I3075
sS'519003'
p689
I194
sS'IRB'
p690
I1776
sS'MIDVAL '
p691
I-1
sS'531162'
p692
I1039
sS'531163'
p693
I1737
sS'531160'
p694
I230
sS'531161'
p695
I38
sS'ADVANTA'
p696
I76
sS'531167'
p697
I2732
sS'531164'
p698
I2157
sS'SAMRUDDHI'
p699
I3351
sS'531169'
p700
I3609
sS'532150'
p701
I1694
sS'532156'
p702
I4166
sS'532154'
p703
I3217
sS'532155'
p704
I1222
sS'505299'
p705
I2112
sS'BOC'
p706
I-1
sS'532701'
p707
I3684
sS'507836'
p708
I2236
sS'507833'
p709
I784
sS'HINDPETRO'
p710
I1531
sS'HIKAL'
p711
I1495
sS'506401'
p712
I892
sS'506405'
p713
I926
sS'500119'
p714
I915
sS'500117'
p715
I881
sS'500116'
p716
I1601
sS'500114'
p717
I3988
sS'500113'
p718
I3720
sS'500112'
p719
I3715
sS'500111'
p720
I3163
sS'500110'
p721
I719
sS'HANILERA'
p722
I1448
sS'515003'
p723
I3662
sS'MURUDCERA'
p724
I2502
sS'513528'
p725
I1296
sS'514209'
p726
I3464
sS'XLENERGY'
p727
I4357
sS'514204'
p728
I-1
sS'513250'
p729
I1924
sS'513252'
p730
I1840
sS'MICROSEC'
p731
I2396
sS'BHAGYNAGAR'
p732
I481
sS'USHAMART'
p733
I4133
sS'HONDAPOWER'
p734
I1552
sS'KMSUGAR'
p735
I1933
sS'RAMCOSYS'
p736
I3100
sS'MBECL'
p737
I2359
sS'535322'
p738
I3032
sS'PARAL'
p739
I2817
sS'530789'
p740
I673
sS'AMDIND'
p741
I163
sS'530787'
p742
I1720
sS'530781'
p743
I1759
sS'530783'
p744
I4009
sS'MUDRA'
p745
I-1
sS'KCP'
p746
I1999
sS'A2ZMES'
p747
I-1
sS'NAGREEKCAP'
p748
I2539
sS'AARTIIND'
p749
I22
sS'512129'
p750
I1843
sS'517407'
p751
I4006
sS'JKLAKSHMI'
p752
I1883
sS'517403'
p753
I3778
sS'504918'
p754
I3359
sS'SANGHVIFOR'
p755
I3365
sS'KTIL'
p756
I2018
sS'512349'
p757
I2182
sS'512341'
p758
I3443
sS'512345'
p759
I4365
sS'512344'
p760
I229
sS'REDINGTON'
p761
I3149
sS'SMSPHARMA'
p762
I3620
sS'THOMASCOOK'
p763
I3965
sS'532974'
p764
I375
sS'532975'
p765
I98
sS'532976'
p766
I1810
sS'532977'
p767
I390
sS'532972'
p768
I3371
sS'532978'
p769
I394
sS'532979'
p770
I2893
sS'502873'
p771
I1564
sS'531952'
p772
I3195
sS'531950'
p773
I4209
sS'531959'
p774
I1762
sS'AMTEKINDIA'
p775
I-1
sS'VINYLINDIA'
p776
I4241
sS'523062'
p777
I1880
sS'JAYPEEHOT'
p778
I1847
sS'507621'
p779
I2405
sS'AUTOIND'
p780
I342
sS'PATNI'
p781
I2839
sS'522249'
p782
I2353
sS'522245'
p783
I1792
sS'522241'
p784
I2422
sS'RELGOLD'
p785
I3170
sS'526009'
p786
I2985
sS'521056'
p787
I720
sS'521054'
p788
I1947
sS'526001'
p789
I1836
sS'524717'
p790
I3987
sS'524715'
p791
I3777
sS'524711'
p792
I4266
sS'GMRINFRA'
p793
I1308
sS'524719'
p794
I3898
sS'AUSOMENT'
p795
I339
sS'RUBYMILLS'
p796
I3251
sS'RISHIPACK'
p797
I3210
sS'512167'
p798
I4367
sS'533148'
p799
I1909
sS'533149'
p800
I1083
sS'533146'
p801
I859
sS'533144'
p802
I817
sS'519606'
p803
I1741
sS'533143'
p804
I3162
sS'ORIENTCONT'
p805
I-1
sS'532161'
p806
I383
sS'TRANSFREIT'
p807
I4010
sS'THANGAMAYL'
p808
I3958
sS'SHAKTIGAS'
p809
I3549
sS'526703'
p810
I1004
sS'PIRGLASS'
p811
I2891
sS'VICEROY'
p812
I4213
sS'522650'
p813
I448
sS'533305'
p814
I3701
sS'511114'
p815
I3187
sS'511116'
p816
I1492
sS'511110'
p817
I4159
sS'503831'
p818
I1170
sS'533495'
p819
I4317
sS'503837'
p820
I3523
sS'505665'
p821
I27
sS'COSMOFILMS'
p822
I812
sS'509762'
p823
I2318
sS'509760'
p824
I2429
sS'DLF'
p825
I954
sS'SYNDIBANK'
p826
I3859
sS'PRISMCEM'
p827
I2976
sS'531319'
p828
I2334
sS'531318'
p829
I4013
sS'523838'
p830
I3586
sS'500561'
p831
I-1
sS'531310'
p832
I349
sS'ZUARI'
p833
I4375
sS'531312'
p834
I3373
sS'523836'
p835
I1415
sS'AMBICAAGAR'
p836
I158
sS'532369'
p837
I3099
sS'532368'
p838
I2150
sS'532360'
p839
I4238
sS'532363'
p840
I777
sS'532362'
p841
I2538
sS'532365'
p842
I981
sS'532364'
p843
I844
sS'532367'
p844
I1970
sS'532366'
p845
I2903
sS'WEBELSOLAR'
p846
I4309
sS'GLFL'
p847
I1405
sS'ANDHRSUGAR'
p848
I190
sS'524634'
p849
I149
sS'GOLDENTOBC'
p850
I1328
sS'DHANUS'
p851
I924
sS'BINANICEM'
p852
I522
sS'ENGINERSIN'
p853
I1054
sS'RAIREKMOH'
p854
I3056
sS'530047'
p855
I3056
sS'530045'
p856
I3989
sS'530043'
p857
I47
sS'526829'
p858
I787
sS'526827'
p859
I3671
sS'TORRENGUJ'
p860
I3999
sS'526823'
p861
I3081
sS'526821'
p862
I863
sS'530049'
p863
I1879
sS'534756'
p864
I3875
sS'512599'
p865
I54
sS'512595'
p866
I4092
sS'512597'
p867
I2023
sS'534758'
p868
I626
sS'508976'
p869
I3659
sS'522017'
p870
I1169
sS'522014'
p871
I4110
sS'522015'
p872
I4195
sS'STEL'
p873
I3439
sS'NEOCURTHER'
p874
I-1
sS'STER'
p875
I3735
sS'526921'
p876
I4065
sS'526927'
p877
I946
sS'NITCO'
p878
I2642
sS'WABCOINDIA'
p879
I4298
sS'KRITIIND'
p880
I2102
sS'522027'
p881
I1037
sS'RAIN'
p882
I3058
sS'530435'
p883
I2518
sS'530433'
p884
I3496
sS'530431'
p885
I70
sS'511473'
p886
I1636
sS'530439'
p887
I3568
sS'SHRIRAMEPC'
p888
I3553
sS'FORTISFIN'
p889
I946
sS'519455'
p890
I3711
sS'519457'
p891
I4248
sS'502460'
p892
I3631
sS'502465'
p893
I3663
sS'590109'
p894
I3300
sS'590108'
p895
I2996
sS'MANAKSIA'
p896
I2298
sS'590101'
p897
I4140
sS'590103'
p898
I2528
sS'590102'
p899
I4139
sS'590104'
p900
I2622
sS'590107'
p901
I2084
sS'590106'
p902
I452
sS'MICRO'
p903
I2393
sS'511618'
p904
I1867
sS'DISHMAN'
p905
I949
sS'GPIL'
p906
I1311
sS'511611'
p907
I877
sS'500820'
p908
I306
sS'ORTINLABSS'
p909
I2744
sS'500825'
p910
I600
sS'DHUNINV'
p911
I934
sS'526217'
p912
I1547
sS'REFEX'
p913
I3150
sS'531489'
p914
I696
sS'AZTECSOFT'
p915
I368
sS'531149'
p916
I3528
sS'531144'
p917
I1015
sS'531621'
p918
I1112
sS'531146'
p919
I2366
sS'531147'
p920
I127
sS'531141'
p921
I3692
sS'532178'
p922
I1054
sS'532179'
p923
I808
sS'532174'
p924
I1595
sS'532175'
p925
I1712
sS'500357'
p926
I3094
sS'500356'
p927
I3093
sS'500350'
p928
I3245
sS'532172'
p929
I772
sS'532173'
p930
I842
sS'500241'
p931
I2052
sS'507817'
p932
I4344
sS'507815'
p933
I1283
sS'507813'
p934
I2560
sS'500680'
p935
I2865
sS'500179'
p936
I1475
sS'500178'
p937
I1453
sS'500171'
p938
I1279
sS'500170'
p939
I1382
sS'500173'
p940
I1396
sS'505412'
p941
I4324
sS'500174'
p942
I1405
sS'500177'
p943
I1448
sS'TBZ'
p944
I3873
sS'501887'
p945
I3421
sS'524502'
p946
I2314
sS'524500'
p947
I2041
sS'TRIDENT'
p948
I4032
sS'524506'
p949
I800
sS'UNIENTER'
p950
I4095
sS'500672'
p951
I2663
sS'BSELINFRA'
p952
I606
sS'513509'
p953
I1955
sS'514221'
p954
I3303
sS'513502'
p955
I427
sS'PALCREDIT'
p956
I2787
sS'513507'
p957
I1392
sS'530239'
p958
I3837
sS'500674'
p959
I3265
sS'530235'
p960
I2062
sS'530237'
p961
I1236
sS'530231'
p962
I3752
sS'530233'
p963
I336
sS'SHEMAROO'
p964
I3292
sS'HEXAWARE'
p965
I1491
sS'534690'
p966
I2147
sS'ALOKTEXT'
p967
I141
sS'MTEDUCARE'
p968
I2224
sS'524174'
p969
I2017
sS'KEI'
p970
I2007
sS'KEC'
p971
I2003
sS'506685'
p972
I4081
sS'506687'
p973
I4019
sS'VISUINTL'
p974
I4267
sS'512105'
p975
I3519
sS'517423'
p976
I1735
sS'517421'
p977
I1235
sS'AQUA'
p978
I228
sS'RAINCOM'
p979
I-1
sS'512109'
p980
I356
sS'SHARRESLTD'
p981
I-1
sS'SHAWALLACE'
p982
I3480
sS'509419'
p983
I4350
sS'520077'
p984
I178
sS'520075'
p985
I3347
sS'520073'
p986
I3136
sS'EONELECT'
p987
I-1
sS'INTEGRA'
p988
I1579
sS'512361'
p989
I838
sS'NDTV'
p990
I2608
sS'512369'
p991
I1057
sS'AXISGOLD'
p992
I363
sS'ATVPROJ'
p993
I332
sS'506027'
p994
I510
sS'506022'
p995
I2937
sS'510245'
p996
I3850
sS'EIMCOELECO'
p997
I1012
sS'CYBERTECH'
p998
I842
sS'532999'
p999
I3580
sS'532996'
p1000
I1162
sS'532997'
p1001
I2109
sS'532994'
p1002
I233
sS'532995'
p1003
I358
sS'532992'
p1004
I726
sS'532993'
p1005
I3449
sS'532990'
p1006
I2223
sS'532991'
p1007
I2506
sS'533482'
p1008
I3146
sS'505052'
p1009
I760
sS'502850'
p1010
I1219
sS'EMAMIINFRA'
p1011
I1038
sS'GLOBOFFS'
p1012
I1299
sS'500029'
p1013
I343
sS'507315'
p1014
I3336
sS'507645'
p1015
I2911
sS'507649'
p1016
I3126
sS'526027'
p1017
I834
sS'526025'
p1018
I1430
sS'521038'
p1019
I3890
sS'530595'
p1020
I4217
sS'521030'
p1021
I2546
sS'530845'
p1022
I3794
sS'521034'
p1023
I3639
sS'530841'
p1024
I509
sS'MALUPAPER'
p1025
I2293
sS'524774'
p1026
I2615
sS'ULTRMARINE'
p1027
I4081
sS'SARLAPOLY'
p1028
I3391
sS'SILINV'
p1029
I3575
sS'BAJAJHLDNG'
p1030
I397
sS'CYIENT'
p1031
I1712
sS'533168'
p1032
I3233
sS'533169'
p1033
I2297
sS'533160'
p1034
I857
sS'533161'
p1035
I1044
sS'533162'
p1036
I1465
sS'533163'
p1037
I258
sS'533164'
p1038
I3950
sS'511288'
p1039
I1373
sS'533166'
p1040
I3784
sS'533167'
p1041
I805
sS'SSWL'
p1042
I3723
sS'503811'
p1043
I3604
sS'503816'
p1044
I3845
sS'511139'
p1045
I399
sS'511138'
p1046
I1367
sS'523728'
p1047
I3569
sS'511131'
p1048
I1961
sS'501945'
p1049
I1538
sS'532799'
p1050
I1442
sS'509782'
p1051
I2747
sS'AARVEEDEN'
p1052
I23
sS'OFSS'
p1053
I2719
sS'OSWALSUG'
p1054
I2686
sS'531080'
p1055
I3547
sS'531083'
p1056
I2623
sS'531082'
p1057
I1090
sS'531084'
p1058
I1678
sS'BLUESTINFO'
p1059
I558
sS'532699'
p1060
I3237
sS'532698'
p1061
I2646
sS'532691'
p1062
I4052
sS'532690'
p1063
I3104
sS'532693'
p1064
I3005
sS'532692'
p1065
I3045
sS'532695'
p1066
I677
sS'532694'
p1067
I429
sS'532696'
p1068
I1007
sS'NELCO'
p1069
I2590
sS'BLUECOAST'
p1070
I556
sS'531330'
p1071
I984
sS'531337'
p1072
I706
sS'531336'
p1073
I338
sS'531335'
p1074
I4400
sS'531334'
p1075
I4226
sS'531339'
p1076
I1813
sS'531338'
p1077
I2404
sS'NAHARPOLY'
p1078
I2543
sS'532343'
p1079
I4063
sS'CORDSCABLE'
p1080
I802
sS'532341'
p1081
I2194
sS'532340'
p1082
I2711
sS'532347'
p1083
I1483
sS'532346'
p1084
I558
sS'532345'
p1085
I1255
sS'500547'
p1086
I497
sS'532349'
p1087
I4020
sS'532348'
p1088
I3751
sS'NETVISTAIT'
p1089
I2602
sS'521018'
p1090
I2319
sS'WSI'
p1091
I4353
sS'537484'
p1092
I3029
sS'BLBLIMITED'
p1093
I547
sS'506235'
p1094
I120
sS'SHANTIGEAR'
p1095
I3469
sS'MAHLIFE'
p1096
I2284
sS'WELGLOB'
p1097
I4317
sS'SUNDARAM'
p1098
I3784
sS'534597'
p1099
I3027
sS'NOESISIND'
p1100
I2518
sS'534598'
p1101
I3266
sS'516108'
p1102
I3647
sS'516106'
p1103
I3515
sS'MODIRUBBER'
p1104
I2432
sS'526849'
p1105
I415
sS'530061'
p1106
I3219
sS'530063'
p1107
I4366
sS'508956'
p1108
I1471
sS'530067'
p1109
I791
sS'526841'
p1110
I3457
sS'530069'
p1111
I2990
sS'526843'
p1112
I3430
sS'PRASGLOFIN'
p1113
I3576
sS'526847'
p1114
I285
sS'ENTEGRA'
p1115
I1061
sS'522034'
p1116
I3469
sS'522036'
p1117
I2420
sS'538268'
p1118
I4291
sS'NAHARCAP'
p1119
I2541
sS'526905'
p1120
I2631
sS'526901'
p1121
I3643
sS'RANBAXY'
p1122
I3107
sS'504896'
p1123
I3131
sS'HELIOSMATH'
p1124
I1483
sS'530457'
p1125
I744
sS'530459'
p1126
I4174
sS'511451'
p1127
I927
sS'RAJVIR'
p1128
I3088
sS'GALLISPAT'
p1129
I1229
sS'519439'
p1130
I2886
sS'502448'
p1131
I3222
sS'502335'
p1132
I1898
sS'502330'
p1133
I1581
sS'502445'
p1134
I3221
sS'511634'
p1135
I971
sS'511636'
p1136
I953
sS'GALPOWTEL'
p1137
I1224
sS'503310'
p1138
I3846
sS'511638'
p1139
I2242
sS'DEN'
p1140
I899
sS'523343'
p1141
I2395
sS'532509'
p1142
I3807
sS'532508'
p1143
I1908
sS'AISHWARYA'
p1144
I-1
sS'532500'
p1145
I2335
sS'532503'
p1146
I3069
sS'532505'
p1147
I4077
sS'532504'
p1148
I2572
sS'532507'
p1149
I386
sS'CHROMATIC'
p1150
I736
sS'531854'
p1151
I1199
sS'531855'
p1152
I2931
sS'NAGARFERT'
p1153
I2537
sS'531858'
p1154
I-1
sS'531859'
p1155
I2739
sS'UPL'
p1156
I4112
sS'FIEMIND'
p1157
I1145
sS'PERIATEA'
p1158
I-1
sS'ORIENTCEM'
p1159
I2685
sS'507789'
p1160
I1808
sS'IVC'
p1161
I1618
sS'507785'
p1162
I3882
sS'590121'
p1163
I2763
sS'IVP'
p1164
I1789
sS'KLRF'
p1165
I2067
sS'ACC'
p1166
I39
sS'500376'
p1167
I3401
sS'505255'
p1168
I1307
sS'500372'
p1169
I3352
sS'500371'
p1170
I3353
sS'500370'
p1171
I3341
sS'TWILITAKA'
p1172
I4066
sS'500378'
p1173
I1875
sS'OMMETALS'
p1174
I2703
sS'507878'
p1175
I4104
sS'524699'
p1176
I2038
sS'507870'
p1177
I2189
sS'507872'
p1178
I287
sS'504786'
p1179
I1765
sS'ORIENTINFO'
p1180
I2732
sS'500153'
p1181
I1238
sS'500151'
p1182
I1328
sS'BHARATRAS'
p1183
I498
sS'500155'
p1184
I1245
sS'500159'
p1185
I1297
sS'524520'
p1186
I3426
sS'524522'
p1187
I2138
sS'IIFLNIFTY'
p1188
I1575
sS'526721'
p1189
I2619
sS'NAGAROIL'
p1190
I2514
sS'506142'
p1191
I4289
sS'533758'
p1192
I12
sS'536507'
p1193
I1115
sS'GDL'
p1194
I1254
sS'530215'
p1195
I4215
sS'530213'
p1196
I1177
sS'506146'
p1197
I4253
sS'500300'
p1198
I1354
sS'530219'
p1199
I3113
sS'VTXIND'
p1200
I4286
sS'NILKAMAL'
p1201
I2633
sS'509046'
p1202
I2165
sS'509040'
p1203
I2599
sS'509048'
p1204
I2153
sS'WARRENTEA'
p1205
I4306
sS'SPLIL'
p1206
I3673
sS'501209'
p1207
I2250
sS'NUMERICPW'
p1208
I-1
sS'514242'
p1209
I2390
sS'514240'
p1210
I3622
sS'513566'
p1211
I2661
sS'AICHAMP '
p1212
I-1
sS'SUPER'
p1213
I3799
sS'KGL'
p1214
I1988
sS'512161'
p1215
I3228
sS'519600'
p1216
I668
sS'512163'
p1217
I1111
sS'519602'
p1218
I4274
sS'519604'
p1219
I3834
sS'517447'
p1220
I3244
sS'SHRERAJSYN'
p1221
I3523
sS'512169'
p1222
I382
sS'500059'
p1223
I523
sS'509438'
p1224
I450
sS'520059'
p1225
I2496
sS'HINDCOPPER'
p1226
I1521
sS'ELECON'
p1227
I1022
sS'520051'
p1228
I1830
sS'520056'
p1229
I3782
sS'520057'
p1230
I3642
sS'538902'
p1231
I855
sS'POLYMED'
p1232
I2912
sS'GUJNRECOKE'
p1233
I1410
sS'512381'
p1234
I2648
sS'MANGTIMBER'
p1235
I2305
sS'WESTERNBIO'
p1236
I4294
sS'537292'
p1237
I9
sS'506971'
p1238
I3736
sS'537291'
p1239
I2527
sS'CENTEXT'
p1240
I688
sS'531624'
p1241
I2592
sS'531627'
p1242
I3049
sS'531626'
p1243
I3579
sS'506003'
p1244
I3758
sS'531996'
p1245
I2695
sS'531991'
p1246
I174
sS'COLPAL'
p1247
I770
sS'531998'
p1248
I1611
sS'AUTOAXLES'
p1249
I345
sS'ONMOBILE'
p1250
I2715
sS'APOLLOTYRE'
p1251
I223
sS'502165'
p1252
I2691
sS'502168'
p1253
I2578
sS'MPHASIS'
p1254
I2472
sS'FAZETHREE'
p1255
I1131
sS'507663'
p1256
I3324
sS'526987'
p1257
I776
sS'522207'
p1258
I3122
sS'WANBURY'
p1259
I4304
sS'522205'
p1260
I2935
sS'522209'
p1261
I4371
sS'533275'
p1262
I1435
sS'526043'
p1263
I2917
sS'526045'
p1264
I3304
sS'521016'
p1265
I1680
sS'521014'
p1266
I1093
sS'526049'
p1267
I3548
sS'503780'
p1268
I2669
sS'530863'
p1269
I1151
sS'530867'
p1270
I3832
sS'524758'
p1271
I4341
sS'524752'
p1272
I773
sS'524754'
p1273
I1406
sS'533103'
p1274
I1869
sS'533100'
p1275
I2956
sS'533101'
p1276
I3825
sS'533106'
p1277
I2699
sS'533107'
p1278
I2890
sS'533104'
p1279
I1302
sS'533108'
p1280
I507
sS'533109'
p1281
I1092
sS'INOXLEISUR'
p1282
I1728
sS'ALEMBICLTD'
p1283
I120
sS'ELDERPHARM'
p1284
I1020
sS'504646'
p1285
I479
sS'GITANJALI'
p1286
I1287
sS'504643'
p1287
I610
sS'519383'
p1288
I193
sS'511153'
p1289
I3041
sS'AMBIKCO'
p1290
I159
sS'534309'
p1291
I2519
sS'POLARIS'
p1292
I2909
sS'BAJAJCORP'
p1293
I391
sS'BOSCHLTD'
p1294
I582
sS'523564'
p1295
I2454
sS'523566'
p1296
I2332
sS'INFINITE'
p1297
I1705
sS'DQE'
p1298
I963
sS'INOVATMARN'
p1299
I1725
sS'NETFINCO'
p1300
I2598
sS'DHANBANK'
p1301
I917
sS'PEARLGLOBL'
p1302
I2847
sS'532457'
p1303
I1427
sS'532456'
p1304
I780
sS'MULTIARC'
p1305
I2492
sS'532903'
p1306
I924
sS'JINDALSTEL'
p1307
I1877
sS'532902'
p1308
I789
sS'513179'
p1309
I2564
sS'ARROWTEX'
p1310
I254
sS'514386'
p1311
I1393
sS'513173'
p1312
I3722
sS'TREEHOUSE'
p1313
I4024
sS'532804'
p1314
I3933
sS'BEPL'
p1315
I488
sS'526861'
p1316
I3209
sS'526865'
p1317
I1818
sS'513713'
p1318
I4331
sS'SUJANATOW'
p1319
I-1
sS'524038'
p1320
I4203
sS'524037'
p1321
I3096
sS'530001'
p1322
I1385
sS'530007'
p1323
I1886
sS'524031'
p1324
I3944
sS'KOTHARIPET'
p1325
I2086
sS'534711'
p1326
I633
sS'533292'
p1327
I17
sS'533293'
p1328
I2055
sS'STAR'
p1329
I3746
sS'533297'
p1330
I2051
sS'533294'
p1331
I3138
sS'533295'
p1332
I3006
sS'IMFA'
p1333
I1666
sS'533298'
p1334
I3820
sS'LOVABLE'
p1335
I2204
sS'517380'
p1336
I1613
sS'MBLINFRA'
p1337
I2356
sS'517385'
p1338
I3856
sS'509597'
p1339
I1451
sS'509845'
p1340
I3214
sS'511433'
p1341
I3423
sS'511431'
p1342
I4168
sS'NEYVELILIG'
p1343
I2613
sS'519415'
p1344
I3054
sS'530479'
p1345
I1940
sS'512445'
p1346
I909
sS'512443'
p1347
I1243
sS'530470'
p1348
I-1
sS'530477'
p1349
I4231
sS'530475'
p1350
I3976
sS'512449'
p1351
I2780
sS'JAYAGROGN'
p1352
I1842
sS'TCIDEVELOP'
p1353
I3922
sS'ALKYLAMINE'
p1354
I132
sS'523367'
p1355
I879
sS'523363'
p1356
I3731
sS'511389'
p1357
I4218
sS'526783'
p1358
I964
sS'523369'
p1359
I880
sS'526785'
p1360
I826
sS'532523'
p1361
I528
sS'532522'
p1362
I2864
sS'532521'
p1363
I1181
sS'532527'
p1364
I3101
sS'532526'
p1365
I949
sS'532525'
p1366
I2232
sS'532524'
p1367
I2998
sS'532529'
p1368
I2608
sS'532528'
p1369
I871
sS'INFRONICS'
p1370
I-1
sS'531874'
p1371
I4208
sS'531878'
p1372
I198
sS'531879'
p1373
I2887
sS'IPCALAB'
p1374
I1773
sS'UFLEX'
p1375
I4078
sS'530843'
p1376
I837
sS'VKSPL'
p1377
I4152
sS'ITI'
p1378
I1786
sS'JKIL'
p1379
I1801
sS'HORIZONINF'
p1380
I1554
sS'ITC'
p1381
I1784
sS'SPECTACLE'
p1382
I3664
sS'WIDIA'
p1383
I4295
sS'500520'
p1384
I2280
sS'500311'
p1385
I2674
sS'505230'
p1386
I740
sS'500313'
p1387
I2698
sS'505232'
p1388
I901
sS'500315'
p1389
I2735
sS'500314'
p1390
I2737
sS'500317'
p1391
I2749
sS'500319'
p1392
I2686
sS'500318'
p1393
I2754
sS'507852'
p1394
I57
sS'507506'
p1395
I2530
sS'507500'
p1396
I396
sS'507508'
p1397
I3203
sS'BIL'
p1398
I504
sS'PURVA'
p1399
I3013
sS'GISOLUTION'
p1400
I1280
sS'JCTEL'
p1401
I1854
sS'521206'
p1402
I3354
sS'CGCL'
p1403
I2441
sS'526523'
p1404
I1838
sS'521200'
p1405
I3830
sS'526521'
p1406
I3363
sS'CENTURYPLY'
p1407
I689
sS'KREBSBIO'
p1408
I2096
sS'VIDEOIND'
p1409
I4218
sS'GOODRICKE'
p1410
I1337
sS'BLUEBLENDS'
p1411
I553
sS'MCX'
p1412
I2219
sS'BANSWRAS'
p1413
I425
sS'530271'
p1414
I3196
sS'MOSERBAER'
p1415
I2459
sS'530273'
p1416
I2169
sS'530279'
p1417
I2115
sS'TANEJAERO'
p1418
I3894
sS'509069'
p1419
I1708
sS'500058'
p1420
I515
sS'MADRASCEM'
p1421
I-1
sS'PGHH'
p1422
I2986
sS'BATLIBOI'
p1423
I434
sS'501261'
p1424
I944
sS'501267'
p1425
I3529
sS'531276'
p1426
I577
sS'531274'
p1427
I2045
sS'531272'
p1428
I2627
sS'531273'
p1429
I3046
sS'531270'
p1430
I875
sS'531278'
p1431
I362
sS'531279'
p1432
I4038
sS'532067'
p1433
I2042
sS'HINDUJAFO'
p1434
I1512
sS'513548'
p1435
I3472
sS'SILVERANIMA'
p1436
I-1
sS'KIL'
p1437
I1963
sS'513544'
p1438
I2322
sS'514266'
p1439
I4386
sS'513540'
p1440
I3892
sS'512149'
p1441
I350
sS'500440'
p1442
I1510
sS'517463'
p1443
I2177
sS'512634'
p1444
I3406
sS'517467'
p1445
I2330
sS'500365'
p1446
I3181
sS'SOMATEX'
p1447
I3639
sS'HGSL'
p1448
I-1
sS'EUROMULTI'
p1449
I1092
sS'KITEX'
p1450
I2060
sS'MANINFRA'
p1451
I2297
sS'WHEELS'
p1452
I4329
sS'CANTABIL'
p1453
I654
sS'ORIENTABRA'
p1454
I2728
sS'531602'
p1455
I2071
sS'531601'
p1456
I1390
sS'531600'
p1457
I1317
sS'ATVPETRO'
p1458
I3842
sS'531609'
p1459
I2025
sS'531608'
p1460
I1342
sS'AVERY'
p1461
I354
sS'508853'
p1462
I1964
sS'KARURVYSYA'
p1463
I1987
sS'502761'
p1464
I553
sS'ALANKIT'
p1465
I1090
sS'AHLWEST'
p1466
I302
sS'LAKHNNATNL'
p1467
I2793
sS'530803'
p1468
I476
sS'530801'
p1469
I1062
sS'530807'
p1470
I3153
sS'530809'
p1471
I565
sS'526067'
p1472
I2078
sS'MINDTREE'
p1473
I2413
sS'PUNALKALI'
p1474
I3007
sS'HOTELRUGBY'
p1475
I1556
sS'PAEL'
p1476
I2785
sS'KOUTONS'
p1477
I2090
sS'ESSAROIL'
p1478
I1081
sS'533121'
p1479
I3961
sS'533122'
p1480
I3035
sS'PSIDATASYS'
p1481
I2994
sS'MAYURUNIQ'
p1482
I2353
sS'SHAMKNSPIN'
p1483
I3466
sS'SAVERA'
p1484
I3406
sS'526711'
p1485
I56
sS'504335'
p1486
I3260
sS'512157'
p1487
I1096
sS'DHANUKA'
p1488
I923
sS'504629'
p1489
I196
sS'511176'
p1490
I2827
sS'519367'
p1491
I4017
sS'LOKHSG'
p1492
I2196
sS'520043'
p1493
I2497
sS'533314'
p1494
I88
sS'500402'
p1495
I3676
sS'TRIGYN'
p1496
I4033
sS'531049'
p1497
I2584
sS'531044'
p1498
I-1
sS'531047'
p1499
I2331
sS'531041'
p1500
I779
sS'526869'
p1501
I2114
sS'531043'
p1502
I925
sS'HINDUNILVR'
p1503
I1533
sS'532659'
p1504
I1716
sS'532658'
p1505
I1066
sS'532654'
p1506
I2358
sS'532657'
p1507
I1121
sS'532656'
p1508
I1120
sS'532651'
p1509
I3673
sS'532650'
p1510
I2478
sS'532653'
p1511
I1566
sS'532652'
p1512
I1983
sS'VOLTAMP'
p1513
I4280
sS'ROHLTD'
p1514
I3237
sS'536773'
p1515
I1795
sS'505576'
p1516
I1323
sS'500057'
p1517
I65
sS'532385'
p1518
I368
sS'532384'
p1519
I4068
sS'500052'
p1520
I488
sS'532382'
p1521
I405
sS'532381'
p1522
I1699
sS'532380'
p1523
I380
sS'532389'
p1524
I4169
sS'532388'
p1525
I1668
sS'VESUVIUS'
p1526
I4211
sS'LLOYDMETAL'
p1527
I2190
sS'EMTEXIND'
p1528
I1051
sS'513153'
p1529
I2640
sS'513151'
p1530
I3739
sS'506904'
p1531
I-1
sS'513488'
p1532
I3533
sS'530011'
p1533
I2307
sS'530393'
p1534
I876
sS'530391'
p1535
I2946
sS'530395'
p1536
I1932
sS'KEMROCK'
p1537
I2010
sS'SPECIALITY'
p1538
I3273
sS'LUPIN'
p1539
I2212
sS'530025'
p1540
I2361
sS'530027'
p1541
I18
sS'508993'
p1542
I2005
sS'530023'
p1543
I1176
sS'526885'
p1544
I3391
sS'526887'
p1545
I1681
sS'526881'
p1546
I1152
sS'508998'
p1547
I3732
sS'524019'
p1548
I1572
sS'524013'
p1549
I1524
sS'GUJRATGAS'
p1550
I1398
sS'BYKE'
p1551
I3870
sS'512285'
p1552
I4373
sS'JPOLYINVST'
p1553
I1795
sS'SALORAINTL'
p1554
I3341
sS'533296'
p1555
I1118
sS'512289'
p1556
I3493
sS'ZENITHEXPO'
p1557
I4385
sS'511411'
p1558
I3555
sS'511413'
p1559
I3478
sS'532893'
p1560
I4285
sS'532892'
p1561
I2461
sS'532891'
p1562
I3013
sS'512463'
p1563
I3513
sS'532896'
p1564
I2260
sS'532895'
p1565
I2539
sS'GARWALLROP'
p1566
I1253
sS'532899'
p1567
I1992
sS'532898'
p1568
I2929
sS'BATAINDIA'
p1569
I433
sS'502374'
p1570
I1032
sS'LUMAXTECH'
p1571
I2208
sS'ZYLOG'
p1572
I4401
sS'523301'
p1573
I3927
sS'523307'
p1574
I2795
sS'JAGAJITIND'
p1575
I1803
sS'INDOTHAI'
p1576
I1583
sS'ASAL'
p1577
I346
sS'BPLENGG'
p1578
I584
sS'TITAN'
p1579
I3988
sS'531819'
p1580
I2679
sS'531812'
p1581
I3450
sS'531810'
p1582
I2385
sS'531816'
p1583
I2800
sS'531814'
p1584
I3983
sS'502595'
p1585
I2061
sS'SARTHAKIND'
p1586
I3393
sS'STOREONE'
p1587
I3743
sS'505817'
p1588
I894
sS'GOODYEAR'
p1589
I1338
sS'500339'
p1590
I3058
sS'500338'
p1591
I2976
sS'500333'
p1592
I2897
sS'505744'
p1593
I1136
sS'500331'
p1594
I2885
sS'500330'
p1595
I3142
sS'500337'
p1596
I2973
sS'505216'
p1597
I126
sS'500335'
p1598
I532
sS'MAANALU'
p1599
I2295
sS'531234'
p1600
I4216
sS'507528'
p1601
I998
sS'507526'
p1602
I316
sS'507525'
p1603
I176
sS'524652'
p1604
I1632
sS'507522'
p1605
I2467
sS'SOLARINDS'
p1606
I3628
sS'MEGH'
p1607
I2374
sS'521220'
p1608
I869
sS'521222'
p1609
I2135
sS'526504'
p1610
I958
sS'526506'
p1611
I3864
sS'MERCATOR'
p1612
I2382
sS'526508'
p1613
I3610
sS'QGOLDHALF'
p1614
I3023
sS'LANCOIN'
p1615
I-1
sS'^NSEI'
p1616
I2670
sS'THEMISMED'
p1617
I3959
sS'MAX'
p1618
I2348
sS'515081'
p1619
I3696
sS'515085'
p1620
I3189
sS'530259'
p1621
I1749
sS'530253'
p1622
I3072
sS'530251'
p1623
I1345
sS'GAIL'
p1624
I1222
sS'530257'
p1625
I2399
sS'530255'
p1626
I1994
sS'501061'
p1627
I3714
sS'509009'
p1628
I339
sS'KITPLYIND'
p1629
I2061
sS'500195'
p1630
I1557
sS'501827'
p1631
I682
sS'500193'
p1632
I1555
sS'500192'
p1633
I2934
sS'500191'
p1634
I1551
sS'500199'
p1635
I1612
sS'COLORCHIPS'
p1636
I772
sS'GLORY'
p1637
I1304
sS'SIGNETIND'
p1638
I-1
sS'NIPPOBATRY'
p1639
I2635
sS'ATUL'
p1640
I331
sS'GOLCRESFIN'
p1641
I1323
sS'SRIPIPES'
p1642
I3287
sS'531250'
p1643
I527
sS'531252'
p1644
I1129
sS'531253'
p1645
I1641
sS'531254'
p1646
I4018
sS'531255'
p1647
I2811
sS'531256'
p1648
I2945
sS'531257'
p1649
I2944
sS'ESCORTSFIN'
p1650
I1077
sS'531259'
p1651
I2158
sS'LYPSAGEMS'
p1652
I2126
sS'532041'
p1653
I1517
sS'532042'
p1654
I1192
sS'EIDPARRY'
p1655
I1009
sS'532045'
p1656
I2612
sS'532047'
p1657
I298
sS'DENORA'
p1658
I3991
sS'537708'
p1659
I2083
sS'CTE'
p1660
I645
sS'509472'
p1661
I821
sS'509470'
p1662
I572
sS'504997'
p1663
I511
sS'509475'
p1664
I573
sS'BRIGADE'
p1665
I595
sS'506590'
p1666
I2875
sS'506597'
p1667
I151
sS'TEXMACOLTD'
p1668
I-1
sS'SILVERLINE'
p1669
I3581
sS'517228'
p1670
I4025
sS'GRAPHITE'
p1671
I1353
sS'CHOWGULSTM'
p1672
I735
sS'531661'
p1673
I1549
sS'506734'
p1674
I2510
sS'531663'
p1675
I1746
sS'TECHNO'
p1676
I3930
sS'531664'
p1677
I2277
sS'531667'
p1678
I3534
sS'531668'
p1679
I4263
sS'NCOPPER'
p1680
I2641
sS'BRABOURNE'
p1681
I586
sS'SHARIABEES'
p1682
I3300
sS'512616'
p1683
I2740
sS'508875'
p1684
I2644
sS'911545'
p1685
I3380
sS'512618'
p1686
I3215
sS'502742'
p1687
I3596
sS'502294'
p1688
I2629
sS'JINDRILL'
p1689
I1870
sS'538635'
p1690
I3290
sS'KOVAI'
p1691
I2091
sS'KARUNACAB'
p1692
I1985
sS'INNOIND'
p1693
I1727
sS'934770'
p1694
I4028
sS'CURATECH'
p1695
I839
sS'NTPC'
p1696
I2565
sS'531343'
p1697
I1244
sS'530829'
p1698
I739
sS'530825'
p1699
I864
sS'570004'
p1700
I1794
sS'531341'
p1701
I1403
sS'570002'
p1702
I2804
sS'570003'
p1703
I1411
sS'570001'
p1704
I3913
sS'ASAHISONG'
p1705
I275
sS'SUDARSCHEM'
p1706
I3760
sS'METROCHEM'
p1707
I2387
sS'ASOCSTONE'
p1708
I318
sS'GRPLTD'
p1709
I1416
sS'524408'
p1710
I4123
sS'519200'
p1711
I2571
sS'502125'
p1712
I388
sS'SEATV'
p1713
I-1
sS'WSTCSTPAPR'
p1714
I4325
sS'SHARDACROP'
p1715
I3298
sS'532333'
p1716
I1472
sS'503655'
p1717
I80
sS'504353'
p1718
I3990
sS'504605'
p1719
I4085
sS'MIDINDIA'
p1720
I2398
sS'504358'
p1721
I4056
sS'503659'
p1722
I2148
sS'KANANIIND'
p1723
I1965
sS'523116'
p1724
I3355
sS'532780'
p1725
I2829
sS'SAREGAMA'
p1726
I3388
sS'523113'
p1727
I1204
sS'511194'
p1728
I1594
sS'511196'
p1729
I651
sS'NEHAINT'
p1730
I2588
sS'ECEIND'
p1731
I1001
sS'535458'
p1732
I2522
sS'532339'
p1733
I781
sS'STARPAPER'
p1734
I3710
sS'531067'
p1735
I794
sS'531065'
p1736
I2753
sS'519105'
p1737
I359
sS'SANWARIA'
p1738
I3378
sS'531069'
p1739
I4222
sS'500294'
p1740
I2536
sS'500295'
p1741
I3445
sS'500296'
p1742
I2544
sS'532674'
p1743
I423
sS'532673'
p1744
I1933
sS'532672'
p1745
I1303
sS'500292'
p1746
I1482
sS'532670'
p1747
I3530
sS'FTCSF3YDIV'
p1748
I1185
sS'500298'
p1749
I2561
sS'532679'
p1750
I3743
sS'532678'
p1751
I576
sS'TV18BRDCST'
p1752
I4060
sS'KWALITY'
p1753
I2122
sS'531391'
p1754
I3133
sS'531390'
p1755
I4130
sS'512070'
p1756
I4112
sS'531395'
p1757
I2783
sS'531397'
p1758
I2914
sS'531396'
p1759
I4347
sS'531398'
p1760
I1767
sS'PETRONENGG'
p1761
I2863
sS'500072'
p1762
I579
sS'500073'
p1763
I584
sS'500074'
p1764
I585
sS'500075'
p1765
I2537
sS'500077'
p1766
I637
sS'500078'
p1767
I649
sS'513131'
p1768
I2386
sS'IGPL'
p1769
I1612
sS'534532'
p1770
I2126
sS'531870'
p1771
I2926
sS'533506'
p1772
I1764
sS'BILPOWER'
p1773
I520
sS'MMFSL'
p1774
I2440
sS'SHREYAS'
p1775
I3540
sS'623574'
p1776
I2801
sS'514128'
p1777
I2075
sS'524075'
p1778
I114
sS'PENTSFWARE'
p1779
I2855
sS'TATAINVEST'
p1780
I3910
sS'ZEEL'
p1781
I4378
sS'PPAP'
p1782
I2950
sS'VMS'
p1783
I-1
sS'GODREJIND'
p1784
I1314
sS'512267'
p1785
I2363
sS'517344'
p1786
I2412
sS'AGRE'
p1787
I-1
sS'RSWM'
p1788
I3245
sS'EVINIX'
p1789
I1101
sS'TPLPLASTEH'
p1790
I4007
sS'517168'
p1791
I3754
sS'512409'
p1792
I3370
sS'532879'
p1793
I3598
sS'532878'
p1794
I142
sS'532875'
p1795
I137
sS'532874'
p1796
I3826
sS'532877'
p1797
I3589
sS'532876'
p1798
I1100
sS'532871'
p1799
I678
sS'532870'
p1800
I202
sS'517164'
p1801
I4384
sS'CCCL'
p1802
I789
sS'SHRIASTER'
p1803
I3295
sS'HCL-INSYS'
p1804
I1475
sS'502352'
p1805
I334
sS'502355'
p1806
I407
sS'AVTNPL'
p1807
I359
sS'SURAJDIAMN'
p1808
I-1
sS'523329'
p1809
I1018
sS'WALCHANNAG'
p1810
I4301
sS'523323'
p1811
I2091
sS'CARERATING'
p1812
I617
sS'531834'
p1813
I2568
sS'DCM'
p1814
I878
sS'531830'
p1815
I3993
sS'531831'
p1816
I4102
sS'531832'
p1817
I2534
sS'531838'
p1818
I108
sS'DCW'
p1819
I881
sS'JMTAUTOLTD'
p1820
I1894
sS'OIL'
p1821
I2699
sS'VULCANENG'
p1822
I4287
sS'511692'
p1823
I101
sS'511690'
p1824
I4305
sS'511696'
p1825
I708
sS'NAGREEKEXP'
p1826
I2540
sS'526747'
p1827
I2867
sS'511698'
p1828
I483
sS'526741'
p1829
I824
sS'HARRMALAYA'
p1830
I1459
sS'507894'
p1831
I3418
sS'507892'
p1832
I4292
sS'TVTODAY'
p1833
I4059
sS'INDIABULLS'
p1834
I1651
sS'507543'
p1835
I804
sS'SULZER'
p1836
I3769
sS'533083'
p1837
I3208
sS'533080'
p1838
I2439
sS'533089'
p1839
I3940
sS'533088'
p1840
I2283
sS'SRSLTD'
p1841
I3700
sS'DAGERFORST'
p1842
I861
sS'526299'
p1843
I2472
sS'526568'
p1844
I2198
sS'GUJAPOLLO'
p1845
I1387
sS'KAUSHALYA'
p1846
I1991
sS'521240'
p1847
I3345
sS'521246'
p1848
I2815
sS'521244'
p1849
I725
sS'524582'
p1850
I3984
sS'524580'
p1851
I2981
sS'AEGISCHEM'
p1852
I79
sS'524588'
p1853
I671
sS'PATELENG'
p1854
I2836
sS'SESAGOA'
p1855
I-1
sS'BSLIMITED'
p1856
I604
sS'511034'
p1857
I1870
sS'511031'
p1858
I1738
sS'BHUSANSTL'
p1859
I513
sS'WWIL'
p1860
I-1
sS'RCOM'
p1861
I3165
sS'500310'
p1862
I2664
sS'509024'
p1863
I1326
sS'ETC'
p1864
I1088
sS'509026'
p1865
I261
sS'500312'
p1866
I2697
sS'509020'
p1867
I3252
sS'OMAXAUTO'
p1868
I2704
sS'MARKSANS'
p1869
I2328
sS'SNOWMAN'
p1870
I3290
sS'AUTOCORP'
p1871
I344
sS'TVSELECT'
p1872
I4062
sS'TANFACIND'
p1873
I3895
sS'NUTEK'
p1874
I2672
sS'RUBFILINTL'
p1875
I3249
sS'531233'
p1876
I3125
sS'531236'
p1877
I2389
sS'531237'
p1878
I933
sS'523660'
p1879
I4307
sS'531235'
p1880
I749
sS'532029'
p1881
I485
sS'532022'
p1882
I1146
sS'532021'
p1883
I3437
sS'532024'
p1884
I3143
sS'532025'
p1885
I3656
sS'SIPAPER'
p1886
I3647
sS'ACCELYA'
p1887
I1948
sS'513405'
p1888
I2853
sS'PATSPINLTD'
p1889
I2840
sS'531648'
p1890
I3331
sS'531642'
p1891
I2325
sS'531640'
p1892
I865
sS'531646'
p1893
I3193
sS'531645'
p1894
I3650
sS'531644'
p1895
I3995
sS'UTISUNDER'
p1896
I4139
sS'TTKHEALTH'
p1897
I4046
sS'508814'
p1898
I812
sS'508815'
p1899
I1144
sS'CLASSIC'
p1900
I758
sS'PHILCORP'
p1901
I2874
sS'526525'
p1902
I4351
sS'534076'
p1903
I2683
sS'526251'
p1904
I2397
sS'NIBL'
p1905
I2522
sS'JKDAIRY'
p1906
I4083
sS'INSECTICID'
p1907
I1729
sS'530519'
p1908
I1751
sS'512097'
p1909
I2724
sS'517571'
p1910
I1620
sS'512093'
p1911
I819
sS'530513'
p1912
I43
sS'512099'
p1913
I3004
sS'530517'
p1914
I3160
sS'LAXMIMACH'
p1915
I2144
sS'503092'
p1916
I2835
sS'HALONIX'
p1917
I-1
sS'538503'
p1918
I2229
sS'TRITURBINE'
p1919
I3869
sS'511208'
p1920
I1618
sS'GUJBOROSIL'
p1921
I1389
sS'VIPUL'
p1922
I-1
sS'511200'
p1923
I2498
sS'UTTAMSTL'
p1924
I4141
sS'519228'
p1925
I3945
sS'RTNINFRA'
p1926
I3027
sS'519224'
p1927
I4335
sS'KSCL'
p1928
I1992
sS'504378'
p1929
I3139
sS'KGKHOSLA'
p1930
I2057
sS'DEEPAKFERT'
p1931
I891
sS'526173'
p1932
I191
sS'503675'
p1933
I82
sS'504370'
p1934
I237
sS'526179'
p1935
I2207
sS'504375'
p1936
I3624
sS'519323'
p1937
I2501
sS'JKPAPER'
p1938
I1800
sS'KOPDRUGS'
p1939
I2002
sS'CNOVAPETRO'
p1940
I738
sS'RKFORGE'
p1941
I3101
sS'531003'
p1942
I3848
sS'ESTL'
p1943
I1084
sS'RASOYPR'
p1944
I3127
sS'532610'
p1945
I980
sS'532613'
p1946
I2350
sS'532612'
p1947
I1688
sS'STINDIA'
p1948
I3739
sS'532617'
p1949
I1859
sS'500279'
p1950
I2417
sS'532619'
p1951
I4143
sS'500277'
p1952
I2398
sS'500271'
p1953
I2348
sS'507970'
p1954
I2813
sS'SKUMARSYNF'
p1955
I3312
sS'532217'
p1956
I3570
sS'505029'
p1957
I328
sS'500019'
p1958
I422
sS'500012'
p1959
I188
sS'500013'
p1960
I209
sS'500010'
p1961
I1561
sS'505537'
p1962
I4378
sS'500014'
p1963
I224
sS'532648'
p1964
I4370
sS'524448'
p1965
I89
sS'524446'
p1966
I3316
sS'524444'
p1967
I1824
sS'524440'
p1968
I646
sS'ADFFOODS'
p1969
I59
sS'ATFL'
p1970
I87
sS'513119'
p1971
I28
sS'514328'
p1972
I2533
sS'MORGANSTAN'
p1973
I2455
sS'514324'
p1974
I2713
sS'514326'
p1975
I2840
sS'513117'
p1976
I164
sS'ATLASCOPCO'
p1977
I327
sS'TWL'
p1978
I3986
sS'514322'
p1979
I1959
sS'508664'
p1980
I466
sS'REIAGROLTD'
p1981
I3157
sS'530355'
p1982
I305
sS'533520'
p1983
I1655
sS'533525'
p1984
I3179
sS'BHEL'
p1985
I495
sS'514140'
p1986
I3833
sS'514142'
p1987
I4045
sS'514144'
p1988
I4296
sS'OUDHSUG'
p1989
I2756
sS'HOPFL '
p1990
I-1
sS'524055'
p1991
I2805
sS'INDIANB'
p1992
I1658
sS'524051'
p1993
I2918
sS'GUJNREDVR'
p1994
I1411
sS'501630'
p1995
I182
sS'KIRLOSIND'
p1996
I2056
sS'506943'
p1997
I1851
sS'GUJRAFFIA'
p1998
I1415
sS'506947'
p1999
I73
sS'FERROALLOY'
p2000
I1139
sS'EON'
p2001
I1066
sS'HUBTOWN'
p2002
I1442
sS'512245'
p2003
I2649
sS'512247'
p2004
I284
sS'509820'
p2005
I2807
sS'CAPRIHANS'
p2006
I658
sS'GMBREW'
p2007
I1306
sS'532857'
p2008
I1304
sS'512425'
p2009
I2637
sS'532855'
p2010
I1460
sS'532854'
p2011
I2645
sS'532853'
p2012
I275
sS'532852'
p2013
I2357
sS'532851'
p2014
I1729
sS'DRDATSONS'
p2015
I849
sS'HINDTINWRK'
p2016
I1532
sS'532859'
p2017
I1513
sS'532858'
p2018
I888
sS'JISLDVREQS'
p2019
I1794
sS'DICIND'
p2020
I941
sS'TALBROAUTO'
p2021
I3886
sS'531585'
p2022
I908
sS'506365'
p2023
I716
sS'531581'
p2024
I128
sS'531582'
p2025
I464
sS'531583'
p2026
I3116
sS'INOVSYNTH'
p2027
I-1
sS'MAHINDUGIN'
p2028
I2285
sS'CMC'
p2029
I761
sS'SHRENUJ'
p2030
I3537
sS'HOTELEELA'
p2031
I1555
sS'516098'
p2032
I4204
sS'PEPL'
p2033
I2846
sS'516092'
p2034
I3000
sS'516096'
p2035
I3360
sS'AHLEAST'
p2036
I301
sS'533326'
p2037
I3949
sS'533320'
p2038
I1913
sS'533321'
p2039
I518
sS'533329'
p2040
I1670
sS'530985'
p2041
I1904
sS'500530'
p2042
I582
sS'526761'
p2043
I1563
sS'530989'
p2044
I3470
sS'505854'
p2045
I4029
sS'524610'
p2046
I3130
sS'APARINDS'
p2047
I216
sS'524614'
p2048
I1661
sS'532395'
p2049
I364
sS'EDSERV'
p2050
I1006
sS'526544'
p2051
I3416
sS'NOVARTIND'
p2052
I2663
sS'533068'
p2053
I254
sS'RNRL'
p2054
I3172
sS'533065'
p2055
I3158
sS'AJANTPHARM'
p2056
I99
sS'GUFICBIO'
p2057
I1384
sS'BAGFILMS'
p2058
I386
sS'511012'
p2059
I4361
sS'511016'
p2060
I2955
sS'531893'
p2061
I3408
sS'BOMDYEING'
p2062
I571
sS'BALAJITELE'
p2063
I405
sS'505700'
p2064
I1022
sS'505703'
p2065
I882
sS'SYMPHONY'
p2066
I3856
sS'PIPAVAVDOC'
p2067
I2890
sS'GILLANDERS'
p2068
I1282
sS'TATASTEEL'
p2069
I3916
sS'REPCOHOME'
p2070
I3032
sS'504036'
p2071
I1508
sS'MICROTECH'
p2072
I2394
sS'523704'
p2073
I2338
sS'DSSL'
p2074
I981
sS'JKCEMENT'
p2075
I1882
sS'SUMMITSEC'
p2076
I3774
sS'523708'
p2077
I1012
sS'SBIGETS'
p2078
I3414
sS'SUBROS'
p2079
I3754
sS'517059'
p2080
I3342
sS'531215'
p2081
I3247
sS'531216'
p2082
I774
sS'531217'
p2083
I4326
sS'MONNETISPA'
p2084
I2443
sS'531211'
p2085
I3194
sS'531212'
p2086
I2547
sS'531213'
p2087
I2300
sS'531218'
p2088
I3205
sS'531219'
p2089
I2925
sS'VMJOGENGG'
p2090
I4157
sS'523648'
p2091
I2900
sS'532005'
p2092
I3343
sS'532001'
p2093
I1697
sS'500483'
p2094
I3906
sS'513149'
p2095
I49
sS'523642'
p2096
I2882
sS'500488'
p2097
I26
sS'500875'
p2098
I1784
sS'ALKALI'
p2099
I131
sS'506559'
p2100
I3571
sS'KOHINOOR'
p2101
I2073
sS'500730'
p2102
I2654
sS'700087'
p2103
I2489
sS'506087'
p2104
I213
sS'SKMEGGPROD'
p2105
I3608
sS'500470'
p2106
I3916
sS'GAYAPROJ'
p2107
I1257
sS'TREADS'
p2108
I4023
sS'513309'
p2109
I150
sS'513307'
p2110
I3861
sS'513305'
p2111
I638
sS'513303'
p2112
I2430
sS'530165'
p2113
I1966
sS'DCMFINSERV'
p2114
I877
sS'530167'
p2115
I2450
sS'530161'
p2116
I1249
sS'530163'
p2117
I2013
sS'530169'
p2118
I2436
sS'BLUEDART'
p2119
I557
sS'KICL'
p2120
I1956
sS'HINDDORROL'
p2121
I1522
sS'SARDAEN'
p2122
I3384
sS'NELCAST'
p2123
I2589
sS'530549'
p2124
I3489
sS'ZFSTEERING'
p2125
I4392
sS'534091'
p2126
I2219
sS'MGOLD'
p2127
I2222
sS'BEML'
p2128
I449
sS'522281'
p2129
I3092
sS'522287'
p2130
I1952
sS'522285'
p2131
I1844
sS'514264'
p2132
I3429
sS'521099'
p2133
I1051
sS'530571'
p2134
I1109
sS'FINCABLES'
p2135
I1156
sS'530577'
p2136
I2137
sS'N100'
p2137
I2532
sS'530579'
p2138
I1327
sS'521097'
p2139
I156
sS'EASTSUGIND'
p2140
I998
sS'517556'
p2141
I3015
sS'517554'
p2142
I2402
sS'517552'
p2143
I74
sS'MMTC'
p2144
I2424
sS'502700'
p2145
I265
sS'502250'
p2146
I2321
sS'519035'
p2147
I4299
sS'514113'
p2148
I64
sS'519248'
p2149
I1918
sS'519242'
p2150
I3387
sS'IDBIGOLD'
p2151
I1576
sS'REMIMETAL'
p2152
I3181
sS'KOTAKPSUBK'
p2153
I2084
sS'526159'
p2154
I2626
sS'ELFORGE'
p2155
I1015
sS'514118'
p2156
I3301
sS'PRAKASHSTL'
p2157
I2938
sS'533180'
p2158
I3512
sS'PILANIINV'
p2159
I2763
sS'531029'
p2160
I500
sS'531027'
p2161
I2172
sS'531025'
p2162
I1625
sS'505890'
p2163
I4295
sS'500259'
p2164
I2214
sS'532638'
p2165
I3504
sS'PFRL'
p2166
I2777
sS'500251'
p2167
I4027
sS'500252'
p2168
I2144
sS'532630'
p2169
I1319
sS'532637'
p2170
I2304
sS'532636'
p2171
I1643
sS'500256'
p2172
I2196
sS'500257'
p2173
I2212
sS'507918'
p2174
I2609
sS'507912'
p2175
I2187
sS'507910'
p2176
I1142
sS'507917'
p2177
I728
sS'RUCHIRA'
p2178
I3255
sS'500034'
p2179
I393
sS'500035'
p2180
I404
sS'500030'
p2181
I347
sS'500031'
p2182
I392
sS'500032'
p2183
I395
sS'505513'
p2184
I3532
sS'500038'
p2185
I411
sS'500039'
p2186
I417
sS'MAHINDFORG'
p2187
I-1
sS'HIMGRANITE'
p2188
I1501
sS'508980'
p2189
I1190
sS'CASTEXTECH'
p2190
I179
sS'VIVIMEDLAB'
p2191
I4270
sS'HNGSNGBEES'
p2192
I1447
sS'530375'
p2193
I185
sS'530377'
p2194
I2628
sS'531130'
p2195
I2431
sS'533543'
p2196
I602
sS'533540'
p2197
I4024
sS'HINDSYNTEX'
p2198
I1509
sS'501343'
p2199
I2465
sS'533452'
p2200
I4311
sS'514304'
p2201
I3312
sS'HATSUN'
p2202
I1466
sS'514300'
p2203
I2888
sS'RMMIL'
p2204
I3190
sS'514308'
p2205
I1449
sS'517300'
p2206
I1400
sS'AIMCOPEST'
p2207
I97
sS'512229'
p2208
I978
sS'LAKSHMIEFL'
p2209
I2142
sS'500387'
p2210
I3508
sS'CLUTCHAUTO'
p2211
I760
sS'533029'
p2212
I131
sS'KRBL'
p2213
I2095
sS'EXCELCROP'
p2214
I1102
sS'PDPL'
p2215
I2819
sS'514162'
p2216
I4318
sS'514167'
p2217
I1240
sS'514165'
p2218
I1657
sS'MAITHANALL'
p2219
I2286
sS'PENNARALUM'
p2220
I2853
sS'532831'
p2221
I35
sS'532830'
p2222
I323
sS'532833'
p2223
I3661
sS'532832'
p2224
I1653
sS'532835'
p2225
I1599
sS'532834'
p2226
I647
sS'532837'
p2227
I2720
sS'532836'
p2228
I1366
sS'519494'
p2229
I2651
sS'519491'
p2230
I2689
sS'534139'
p2231
I3281
sS'531568'
p2232
I293
sS'531569'
p2233
I3369
sS'531565'
p2234
I1683
sS'531560'
p2235
I3600
sS'GRINDWELL'
p2236
I1370
sS'PEL'
p2237
I2892
sS'JYOTHYLAB'
p2238
I1919
sS'SINGER'
p2239
I3594
sS'INTLTRAVHS'
p2240
I1760
sS'DECOLIGHT'
p2241
I888
sS'SHREEASHTA'
p2242
I3506
sS'505872'
p2243
I4352
sS'533302'
p2244
I1956
sS'533303'
p2245
I470
sS'533304'
p2246
I636
sS'526707'
p2247
I117
sS'533306'
p2248
I3774
sS'526705'
p2249
I1027
sS'533309'
p2250
I867
sS'526709'
p2251
I542
sS'PIPAVAVYD'
p2252
I-1
sS'530965'
p2253
I1667
sS'500650'
p2254
I1104
sS'530967'
p2255
I3925
sS'530961'
p2256
I4228
sS'NEULANDLAB'
p2257
I2606
sS'500220'
p2258
I1834
sS'RELBANK'
p2259
I3171
sS'524636'
p2260
I3703
sS'507580'
p2261
I1789
sS'524632'
p2262
I3180
sS'STERLINBIO'
p2263
I3729
sS'533047'
p2264
I1666
sS'AIL'
p2265
I148
sS'SREEL'
p2266
I3293
sS'533048'
p2267
I1280
sS'INDIANORG'
p2268
I1589
sS'500128'
p2269
I1023
sS'APCOTEXIND'
p2270
I217
sS'^IXIC'
p2271
I2553
sS'JSWHL'
p2272
I1876
sS'504580'
p2273
I2247
sS'ASOCALCHOL'
p2274
I316
sS'GENUSPOWER'
p2275
I1274
sS'511072'
p2276
I911
sS'511076'
p2277
I3397
sS'511074'
p2278
I4310
sS'505729'
p2279
I3594
sS'JAGRAN'
p2280
I1805
sS'505720'
p2281
I1487
sS'505726'
p2282
I1606
sS'505725'
p2283
I1523
sS'3MINDIA'
p2284
I4404
sS'KALYANISHP'
p2285
I3475
sS'CARBORUNIV'
p2286
I660
sS'504058'
p2287
I2635
sS'532794'
p2288
I4381
sS'532795'
p2289
I4343
sS'532796'
p2290
I2208
sS'532797'
p2291
I342
sS'532790'
p2292
I3896
sS'532791'
p2293
I3017
sS'532792'
p2294
I640
sS'532793'
p2295
I3506
sS'523724'
p2296
I4221
sS'532798'
p2297
I2603
sS'523722'
p2298
I3840
sS'SUZLON'
p2299
I3838
sS'511728'
p2300
I2123
sS'523620'
p2301
I2871
sS'INVENTURE'
p2302
I1764
sS'523628'
p2303
I4308
sS'AICHAMP'
p2304
I95
sS'BLUEBIRD'
p2305
I551
sS'SREINFRA'
p2306
I3685
sS'SICAL'
p2307
I3567
sS'CEBBCO'
p2308
I775
sS'507190'
p2309
I2089
sS'AGEEGOLD'
p2310
I-1
sS'LLOYDELENG'
p2311
I2188
sS'532882'
p2312
I2712
sS'DEEPAKNTR'
p2313
I892
sS'JKTYRE'
p2314
I1886
sS'506579'
p2315
I2736
sS'COMPUSOFT'
p2316
I781
sS'500758'
p2317
I-1
sS'513630'
p2318
I3079
sS'KAJARIACER'
p2319
I1945
sS'524396'
p2320
I529
sS'530149'
p2321
I2110
sS'524394'
p2322
I4233
sS'530145'
p2323
I2059
sS'530141'
p2324
I1434
sS'526109'
p2325
I2966
sS'FMNL'
p2326
I1118
sS'NUCLEUS'
p2327
I2675
sS'SESHAPAPER'
p2328
I3447
sS'KIRLOSELEC'
p2329
I1931
sS'ORICONENT'
p2330
I2727
sS'GOODLUCK'
p2331
I1336
sS'EASUNREYRL'
p2332
I1000
sS'531357'
p2333
I2384
sS'AJMERA'
p2334
I102
sS'530555'
p2335
I2812
sS'530557'
p2336
I2579
sS'517530'
p2337
I3819
sS'517534'
p2338
I3839
sS'517536'
p2339
I2717
sS'502271'
p2340
I3042
sS'511243'
p2341
I733
sS'511246'
p2342
I4332
sS'SIMBHSUGAR'
p2343
I3583
sS'519262'
p2344
I2967
sS'519260'
p2345
I3378
sS'CENTURYTEX'
p2346
I690
sS'ZICOM'
p2347
I4393
sS'502180'
p2348
I3509
sS'531795'
p2349
I330
sS'531794'
p2350
I3446
sS'COALINDIA'
p2351
I765
sS'531791'
p2352
I2662
sS'531793'
p2353
I1709
sS'TVSMOTOR'
p2354
I4063
sS'526139'
p2355
I4016
sS'SB&TINTL;'
p2356
I3411
sS'526133'
p2357
I3806
sS'ARVINDREM'
p2358
I270
sS'526137'
p2359
I3486
sS'511395'
p2360
I401
sS'ABGHEAVY'
p2361
I32
sS'VSSL'
p2362
I4151
sS'513687'
p2363
I3665
sS'502986'
p2364
I4187
sS'RPOWER'
p2365
I3174
sS'500233'
p2366
I1945
sS'500231'
p2367
I4083
sS'500236'
p2368
I1969
sS'500234'
p2369
I1946
sS'500235'
p2370
I1957
sS'500238'
p2371
I4330
sS'500239'
p2372
I2024
sS'CAPLIPOINT'
p2373
I656
sS'507938'
p2374
I2310
sS'DRBECK'
p2375
I1017
sS'THERMAX'
p2376
I3960
sS'503637'
p2377
I3135
sS'503635'
p2378
I3531
sS'ELPROINTL'
p2379
I1034
sS'524400'
p2380
I1779
sS'524404'
p2381
I2328
sS'507828'
p2382
I208
sS'GSLNOVA'
p2383
I1377
sS'VASCONEQ'
p2384
I4191
sS'530317'
p2385
I1310
sS'530315'
p2386
I1532
sS'530305'
p2387
I2883
sS'NANDAN'
p2388
I-1
sS'509162'
p2389
I1634
sS'LINDEINDIA'
p2390
I2127
sS'533569'
p2391
I3700
sS'FALCONTYRE'
p2392
I1126
sS'HARIGCRANK'
p2393
I1453
sS'ASIANELEC'
p2394
I297
sS'ASHOKLEY'
p2395
I289
sS'SAIL'
p2396
I3720
sS'SUNDRMFAST'
p2397
I3786
sS'513401'
p2398
I281
sS'514360'
p2399
I1429
sS'513403'
p2400
I3818
sS'UNIFLEX'
p2401
I4089
sS'513406'
p2402
I3063
sS'501178'
p2403
I3835
sS'517326'
p2404
I761
sS'512207'
p2405
I2292
sS'517320'
p2406
I3404
sS'DCBBANK'
p2407
I906
sS'531404'
p2408
I4393
sS'531406'
p2409
I206
sS'531401'
p2410
I2034
sS'531400'
p2411
I140
sS'531402'
p2412
I2213
sS'531409'
p2413
I116
sS'532215'
p2414
I361
sS'ANKITMETAL'
p2415
I202
sS'532216'
p2416
I1473
sS'532210'
p2417
I752
sS'532212'
p2418
I234
sS'FCH'
p2419
I-1
sS'FCL'
p2420
I1155
sS'532218'
p2421
I3648
sS'514183'
p2422
I546
sS'532819'
p2423
I2413
sS'532818'
p2424
I1101
sS'OMKARCHEM'
p2425
I2710
sS'532813'
p2426
I635
sS'532812'
p2427
I4021
sS'532811'
p2428
I90
sS'532810'
p2429
I2928
sS'532817'
p2430
I2738
sS'532816'
p2431
I601
sS'532815'
p2432
I3620
sS'532814'
p2433
I1658
sS'SDBL'
p2434
I3637
sS'531548'
p2435
I3640
sS'531540'
p2436
I2333
sS'531541'
p2437
I357
sS'531543'
p2438
I1878
sS'531544'
p2439
I4210
sS'531547'
p2440
I3981
sS'CHEMFALKAL'
p2441
I715
sS'ARROWCOAT'
p2442
I252
sS'SAHPETRO'
p2443
I-1
sS'BHARTIARTL'
p2444
I503
sS'MARALOVER'
p2445
I2319
sS'531892'
p2446
I2030
sS'SICAGEN'
p2447
I3566
sS'531897'
p2448
I42
sS'531898'
p2449
I3367
sS'ASIL'
p2450
I169
sS'524184'
p2451
I1428
sS'HARIAEXPO'
p2452
I1452
sS'507747'
p2453
I4046
sS'502512'
p2454
I914
sS'522122'
p2455
I4277
sS'530945'
p2456
I1241
sS'530943'
p2457
I3689
sS'526729'
p2458
I1329
sS'526725'
p2459
I3357
sS'MAKE'
p2460
I2229
sS'526727'
p2461
I1247
sS'521113'
p2462
I3762
sS'505893'
p2463
I1526
sS'526723'
p2464
I3145
sS'BFUTILITIE'
p2465
I471
sS'TEXINFRA'
p2466
I3948
sS'NORBTEAEXP'
p2467
I2657
sS'531744'
p2468
I1284
sS'MIC'
p2469
I2391
sS'GRUH'
p2470
I1373
sS'SURYVANSPG'
p2471
I3833
sS'533023'
p2472
I4298
sS'533022'
p2473
I4402
sS'533026'
p2474
I713
sS'INFRABEES'
p2475
I1715
sS'526588'
p2476
I2879
sS'511589'
p2477
I139
sS'NCLIND'
p2478
I2578
sS'526582'
p2479
I4007
sS'526586'
p2480
I4336
sS'511585'
p2481
I3156
sS'590035'
p2482
I3980
sS'590037'
p2483
I3721
sS'590036'
p2484
I1954
sS'590031'
p2485
I3991
sS'590030'
p2486
I3654
sS'590033'
p2487
I227
sS'590032'
p2488
I4382
sS'590038'
p2489
I4267
sS'511726'
p2490
I4247
sS'511724'
p2491
I389
sS'511720'
p2492
I657
sS'504212'
p2493
I4119
sS'PFOCUS'
p2494
I2970
sS'KSBPUMPS'
p2495
I2107
sS'HOVS'
p2496
I1562
sS'504076'
p2497
I1921
sS'509084'
p2498
I2878
sS'504336'
p2499
I1633
sS'505302'
p2500
I2140
sS'KSE'
p2501
I2108
sS'KSL'
p2502
I1957
sS'KSK'
p2503
I2109
sS'532778'
p2504
I2152
sS'532779'
p2505
I4001
sS'532776'
p2506
I3502
sS'532777'
p2507
I2531
sS'532774'
p2508
I40
sS'532775'
p2509
I1380
sS'532772'
p2510
I906
sS'532773'
p2511
I1301
sS'532770'
p2512
I1450
sS'532771'
p2513
I1866
sS'SFCL'
p2514
I3294
sS'WINSOME'
p2515
I4340
sS'512455'
p2516
I2190
sS'GLOBABOARD'
p2517
I1297
sS'505750'
p2518
I1902
sS'PIRHEALTH'
p2519
I-1
sS'523606'
p2520
I3574
sS'BHARATGEAR'
p2521
I494
sS'IDEA'
p2522
I1602
sS'500770'
p2523
I3904
sS'500777'
p2524
I3891
sS'AVANTI'
p2525
I-1
sS'524212'
p2526
I4304
sS'524210'
p2527
I2857
sS'DEWANHOUS'
p2528
I-1
sS'TIMBOR'
p2529
I3971
sS'524218'
p2530
I248
sS'513611'
p2531
I2895
sS'513613'
p2532
I1825
sS'513349'
p2533
I102
sS'513434'
p2534
I3911
sS'HESTERBIO'
p2535
I1490
sS'530129'
p2536
I2632
sS'PRETAILDVR'
p2537
I-1
sS'524374'
p2538
I1070
sS'530125'
p2539
I3350
sS'524370'
p2540
I567
sS'530127'
p2541
I2665
sS'524372'
p2542
I2723
sS'523133'
p2543
I578
sS'501421'
p2544
I3634
sS'501423'
p2545
I3455
sS'501425'
p2546
I569
sS'PEERABASAN'
p2547
I3555
sS'509966'
p2548
I4284
sS'509960'
p2549
I4127
sS'521210'
p2550
I751
sS'GTL'
p2551
I1381
sS'HONAUT'
p2552
I1553
sS'512565'
p2553
I3246
sS'517044'
p2554
I1757
sS'CADILAHC'
p2555
I639
sS'517041'
p2556
I72
sS'517514'
p2557
I858
sS'517518'
p2558
I2188
sS'502216'
p2559
I575
sS'502219'
p2560
I581
sS'533212'
p2561
I1290
sS'526967'
p2562
I1480
sS'PUNJABTRAC'
p2563
I3011
sS'526616'
p2564
I2562
sS'526965'
p2565
I1394
sS'500189'
p2566
I1514
sS'538979'
p2567
I1213
sS'533216'
p2568
I3934
sS'519285'
p2569
I3900
sS'519287'
p2570
I2427
sS'519281'
p2571
I86
sS'LITL'
p2572
I2152
sS'NUCHEM'
p2573
I2674
sS'GANESHBENZ'
p2574
I1238
sS'RUSHIL'
p2575
I3259
sS'KECL'
p2576
I2053
sS'RANEENGINE'
p2577
I3110
sS'537007'
p2578
I1586
sS'507486'
p2579
I659
sS'507488'
p2580
I1306
sS'524378'
p2581
I1892
sS'503031'
p2582
I2851
sS'PUNJCOMMU'
p2583
I3009
sS'OSWALAGRO'
p2584
I2749
sS'500219'
p2585
I1815
sS'500214'
p2586
I1771
sS'500215'
p2587
I87
sS'500210'
p2588
I1719
sS'500211'
p2589
I1730
sS'500212'
p2590
I1739
sS'500213'
p2591
I1760
sS'ASHAPURMIN'
p2592
I277
sS'BASML'
p2593
I423
sS'507265'
p2594
I225
sS'534328'
p2595
I1440
sS'TCIFINANCE'
p2596
I3923
sS'GREENPOWER'
p2597
I2731
sS'RAJPALAYAM'
p2598
I3069
sS'531040'
p2599
I-1
sS'526445'
p2600
I1695
sS'526441'
p2601
I4264
sS'526443'
p2602
I873
sS'KINETICENG'
p2603
I2043
sS'PANYAMCEM'
p2604
I2806
sS'HBLPOWER'
p2605
I1474
sS'EKC'
p2606
I1098
sS'535601'
p2607
I3293
sS'530337'
p2608
I1107
sS'530331'
p2609
I2954
sS'VIPULLTD'
p2610
I4247
sS'530333'
p2611
I1042
sS'VIKASWSP'
p2612
I4229
sS'TATAPOWER'
p2613
I3914
sS'509148'
p2614
I1344
sS'NSIL'
p2615
I2548
sS'533581'
p2616
I2767
sS'POLYPLEX'
p2617
I2918
sS'ASHIANA'
p2618
I280
sS'501301'
p2619
I3910
sS'AURANPAPER'
p2620
I-1
sS'532184'
p2621
I737
sS'532187'
p2622
I1700
sS'TGBHOTELS'
p2623
I3876
sS'532181'
p2624
I1407
sS'532180'
p2625
I917
sS'532183'
p2626
I1258
sS'513422'
p2627
I550
sS'532189'
p2628
I1650
sS'PIONEEREMB'
p2629
I2888
sS'514348'
p2630
I4340
sS'COMPUAGE'
p2631
I780
sS'504879'
p2632
I2728
sS'RCF'
p2633
I3124
sS'509557'
p2634
I1253
sS'509550'
p2635
I1232
sS'531429'
p2636
I77
sS'531426'
p2637
I3889
sS'531968'
p2638
I1682
sS'531420'
p2639
I562
sS'JIKIND'
p2640
I1867
sS'532234'
p2641
I2557
sS'MELSTAR'
p2642
I2378
sS'532230'
p2643
I459
sS'531522'
p2644
I3127
sS'531521'
p2645
I904
sS'531524'
p2646
I1600
sS'531525'
p2647
I45
sS'531528'
p2648
I2235
sS'532387'
p2649
I2980
sS'532386'
p2650
I642
sS'PHILIPCARB'
p2651
I2875
sS'500055'
p2652
I513
sS'500500'
p2653
I1528
sS'FOSECOIND'
p2654
I1178
sS'516072'
p2655
I4260
sS'SWIL'
p2656
I3302
sS'500051'
p2657
I474
sS'TNTELE'
p2658
I3893
sS'516078'
p2659
I1915
sS'CCL'
p2660
I668
sS'CCI'
p2661
I637
sS'512481'
p2662
I2921
sS'512487'
p2663
I3076
sS'CLNINDIA'
p2664
I755
sS'512485'
p2665
I920
sS'512489'
p2666
I2687
sS'LAMBODHARA'
p2667
I2149
sS'522108'
p2668
I4372
sS'533340'
p2669
I3413
sS'PATINTLOG'
p2670
I2837
sS'533343'
p2671
I2204
sS'522101'
p2672
I2039
sS'522105'
p2673
I537
sS'530921'
p2674
I1743
sS'530923'
p2675
I2832
sS'530697'
p2676
I2585
sS'BIRLACORPN'
p2677
I532
sS'530695'
p2678
I2972
sS'MIRCELECTR'
p2679
I2417
sS'521131'
p2680
I197
sS'530699'
p2681
I3066
sS'521133'
p2682
I1268
sS'511306'
p2683
I2787
sS'UBL'
p2684
I4108
sS'SGFL'
p2685
I3511
sS'DALMIASUG'
p2686
I868
sS'533008'
p2687
I2692
sS'533003'
p2688
I905
sS'533001'
p2689
I3641
sS'533007'
p2690
I2168
sS'533006'
p2691
I533
sS'NILAINFRA'
p2692
I2628
sS'503776'
p2693
I2433
sS'503772'
p2694
I2426
sS'590018'
p2695
I1543
sS'CILNOVA'
p2696
I-1
sS'590013'
p2697
I4359
sS'590011'
p2698
I2469
sS'511700'
p2699
I3705
sS'511702'
p2700
I2826
sS'522275'
p2701
I238
sS'511706'
p2702
I52
sS'532435'
p2703
I294
sS'532430'
p2704
I471
sS'532432'
p2705
I4113
sS'CENTENKA'
p2706
I687
sS'COMPACDISC'
p2707
I778
sS'ICICIBANK'
p2708
I1595
sS'RBL'
p2709
I3109
sS'UNICHEMLAB'
p2710
I4088
sS'526307'
p2711
I1507
sS'526301'
p2712
I2367
sS'504096'
p2713
I3998
sS'504092'
p2714
I1690
sS'ELECTCAST'
p2715
I1023
sS'519136'
p2716
I2542
sS'BAJAJHIND'
p2717
I395
sS'523768'
p2718
I1389
sS'532758'
p2719
I2020
sS'532759'
p2720
I326
sS'IFBAGRO'
p2721
I1605
sS'532751'
p2722
I1000
sS'ASAHIINDIA'
p2723
I273
sS'532754'
p2724
I1308
sS'532755'
p2725
I3929
sS'532756'
p2726
I2282
sS'532757'
p2727
I4280
sS'BSTRANSCOM'
p2728
I-1
sS'JUNIORBEES'
p2729
I2622
sS'WADALACOM'
p2730
I-1
sS'PENIND'
p2731
I2854
sS'HDFCBANK'
p2732
I1477
sS'POLARIND'
p2733
I2907
sS'QNIFTY'
p2734
I3024
sS'514087'
p2735
I2843
sS'506532'
p2736
I2647
sS'506530'
p2737
I2009
sS'MOTILALOFS'
p2738
I2461
sS'506820'
p2739
I324
sS'506822'
p2740
I2471
sS'JINDALPOLY'
p2741
I1874
sS'505324'
p2742
I2317
sS'500790'
p2743
I2596
sS'505320'
p2744
I2215
sS'524230'
p2745
I3124
sS'524232'
p2746
I2272
sS'524238'
p2747
I1401
sS'LAKPRE'
p2748
I2146
sS'PANCHSHEEL'
p2749
I2797
sS'523888'
p2750
I4283
sS'ESABINDIA'
p2751
I1076
sS'513369'
p2752
I3083
sS'ARAVALISEC'
p2753
I229
sS'523886'
p2754
I2393
sS'513361'
p2755
I1648
sS'531266'
p2756
I4161
sS'530109'
p2757
I4180
sS'SIMPLEX'
p2758
I3589
sS'MANDHANA'
p2759
I2301
sS'SHRIDINESH'
p2760
I3543
sS'517288'
p2761
I1414
sS'509945'
p2762
I3953
sS'BINDALAGRO'
p2763
I2750
sS'TUTICORALK'
p2764
I4057
sS'512018'
p2765
I764
sS'PRADIP'
p2766
I2933
sS'512017'
p2767
I1106
sS'517063'
p2768
I1860
sS'PRECIMDIAM'
p2769
I2946
sS'RAJOIL'
p2770
I3064
sS'GREENLAM'
p2771
I1213
sS'MAGNUM'
p2772
I2260
sS'514274'
p2773
I23
sS'524824'
p2774
I400
sS'524826'
p2775
I1916
sS'524820'
p2776
I2792
sS'524828'
p2777
I2233
sS'AMFORGEIND'
p2778
I164
sS'SURANAT&P;'
p2779
I3819
sS'JAIBALAJI'
p2780
I1810
sS'ALLCARGO'
p2781
I135
sS'GEODESIC'
p2782
I1275
sS'507468'
p2783
I3535
sS'520021'
p2784
I2704
sS'508996'
p2785
I3400
sS'RUPA'
p2786
I3257
sS'526683'
p2787
I1556
sS'526733'
p2788
I3749
sS'526681'
p2789
I3330
sS'526687'
p2790
I2910
sS'526689'
p2791
I1138
sS'INDIASEC'
p2792
I1647
sS'INDUSINDBK'
p2793
I1700
sS'503015'
p2794
I2428
sS'CONCOR'
p2795
I792
sS'521103'
p2796
I172
sS'DATAMATICS'
p2797
I871
sS'IOLN'
p2798
I1770
sS'507205'
p2799
I3970
sS'GAEL'
p2800
I1386
sS'JSL'
p2801
I1908
sS'PARABDRUGS'
p2802
I2809
sS'530487'
p2803
I4212
sS'526468'
p2804
I1091
sS'526465'
p2805
I3048
sS'526463'
p2806
I4079
sS'PRESTIGE'
p2807
I2964
sS'MARG'
p2808
I2324
sS'POCHIRAJU'
p2809
I2904
sS'501144'
p2810
I2858
sS'DUNLOP'
p2811
I976
sS'501148'
p2812
I866
sS'VIJAYABANK'
p2813
I4224
sS'500092'
p2814
I829
sS'519091'
p2815
I3903
sS'500096'
p2816
I860
sS'500097'
p2817
I868
sS'519097'
p2818
I3212
sS'TRENT'
p2819
I4027
sS'HIL'
p2820
I1571
sS'LAKSHMIFIN'
p2821
I-1
sS'514414'
p2822
I2758
sS'514412'
p2823
I3394
sS'531199'
p2824
I1292
sS'531198'
p2825
I4197
sS'531196'
p2826
I1221
sS'531194'
p2827
I2388
sS'MSPL'
p2828
I2478
sS'531192'
p2829
I317
sS'531191'
p2830
I1149
sS'514418'
p2831
I973
sS'532131'
p2832
I4041
sS'535755'
p2833
I2777
sS'535754'
p2834
I2685
sS'519307'
p2835
I4229
sS'GRAVITA'
p2836
I1359
sS'533015'
p2837
I2672
sS'BIMETAL'
p2838
I521
sS'533221'
p2839
I302
sS'DALMIABHA'
p2840
I867
sS'531448'
p2841
I253
sS'523419'
p2842
I3893
sS'SRSREAL'
p2843
I-1
sS'500630'
p2844
I1082
sS'523415'
p2845
I816
sS'BALURTRANS'
p2846
I412
sS'531444'
p2847
I3745
sS'531447'
p2848
I1731
sS'532259'
p2849
I216
sS'537008'
p2850
I1584
sS'532254'
p2851
I2909
sS'532256'
p2852
I2548
sS'531508'
p2853
I1094
sS'531509'
p2854
I3728
sS'531505'
p2855
I1637
sS'531506'
p2856
I3557
sS'531500'
p2857
I3078
sS'531502'
p2858
I1075
sS'NKIND'
p2859
I2651
sS'CAIRN'
p2860
I640
sS'NISSAN'
p2861
I-1
sS'506720'
p2862
I4377
sS'516016'
p2863
I3538
sS'JVLAGRO'
p2864
I1918
sS'513005'
p2865
I4193
sS'MOTHERSUMI'
p2866
I2460
sS'YUKENINDIA'
p2867
I4372
sS'IFL'
p2868
I1640
sS'530715'
p2869
I147
sS'530713'
p2870
I730
sS'530711'
p2871
I1802
sS'530719'
p2872
I1615
sS'TATAELXSI'
p2873
I3908
sS'522163'
p2874
I939
sS'505930'
p2875
I4258
sS'522165'
p2876
I1696
sS'521151'
p2877
I921
sS'MPSLTD'
p2878
I2474
sS'517496'
p2879
I3200
sS'517494'
p2880
I41
sS'530901'
p2881
I58
sS'517498'
p2882
I4309
sS'500133'
p2883
I1076
sS'511549'
p2884
I2452
sS'MOHITIND'
p2885
I2435
sS'511543'
p2886
I1375
sS'519560'
p2887
I2588
sS'MUKANDENGG'
p2888
I2482
sS'GONTERPEIP'
p2889
I1335
sS'519566'
p2890
I3592
sS'VINCARDS'
p2891
I4238
sS'KOPRAN'
p2892
I2077
sS'590079'
p2893
I1901
sS'590078'
p2894
I2286
sS'504258'
p2895
I2141
sS'526093'
p2896
I3399
sS'590071'
p2897
I3783
sS'590070'
p2898
I3044
sS'504256'
p2899
I898
sS'503205'
p2900
I3526
sS'590075'
p2901
I2149
sS'590074'
p2902
I-1
sS'590077'
p2903
I3115
sS'590076'
p2904
I650
sS'511768'
p2905
I2341
sS'511092'
p2906
I1891
sS'511766'
p2907
I2504
sS'511764'
p2908
I4128
sS'507260'
p2909
I2756
sS'CENTRALBK'
p2910
I681
sS'532419'
p2911
I3616
sS'532418'
p2912
I186
sS'532417'
p2913
I994
sS'532416'
p2914
I2611
sS'532414'
p2915
I1616
sS'532413'
p2916
I692
sS'532411'
p2917
I4255
sS'532410'
p2918
I4014
sS'DHAMPURSUG'
p2919
I915
sS'526325'
p2920
I2734
sS'HEXATRADEX'
p2921
I1440
sS'532733'
p2922
I3779
sS'532730'
p2923
I3740
sS'532731'
p2924
I3220
sS'532736'
p2925
I2930
sS'532737'
p2926
I1043
sS'532734'
p2927
I1311
sS'519156'
p2928
I4164
sS'532738'
p2929
I3897
sS'532739'
p2930
I2902
sS'523780'
p2931
I3119
sS'523782'
p2932
I903
sS'JDORGOCHEM'
p2933
I1856
sS'507690'
p2934
I2729
sS'TORRENTCAB'
p2935
I3998
sS'SOBHA'
p2936
I3623
sS'MEGASOFT'
p2937
I2373
sS'ADVANIHOTR'
p2938
I75
sS'531295'
p2939
I3238
sS'531297'
p2940
I260
sS'531293'
p2941
I2940
sS'8KMILES'
p2942
I3228
sS'500408'
p2943
I3908
sS'532084'
p2944
I1130
sS'500404'
p2945
I3787
sS'532086'
p2946
I2690
sS'505693'
p2947
I968
sS'532081'
p2948
I1934
sS'500403'
p2949
I3786
sS'532083'
p2950
I3546
sS'512461'
p2951
I3002
sS'524788'
p2952
I1021
sS'532421'
p2953
I1774
sS'YESBANK'
p2954
I4370
sS'532890'
p2955
I3885
sS'FTCPOF5YDV'
p2956
I1183
sS'512465'
p2957
I3377
sS'532894'
p2958
I1692
sS'ICSA'
p2959
I1600
sS'505343'
p2960
I2446
sS'TCPLTD'
p2961
I3879
sS'526113'
p2962
I4100
sS'CREWBOS'
p2963
I828
sS'VARUN'
p2964
I4188
sS'533427'
p2965
I4275
sS'526117'
p2966
I3485
sS'526115'
p2967
I1980
sS'CMAHENDRA'
p2968
I636
sS'VISAKAIND'
p2969
I4254
sS'524330'
p2970
I1842
sS'524332'
p2971
I505
sS'AMLSTEEL'
p2972
I170
sS'INDBANK'
p2973
I1636
sS'524336'
p2974
I3514
sS'SUNPHARMA'
p2975
I3777
sS'WELSPUNIND'
p2976
I4318
sS'534369'
p2977
I3873
sS'MRO-TEK'
p2978
I2476
sS'FTCPOF3YGR'
p2979
I1195
sS'534816'
p2980
I1585
sS'CHOLAFIN'
p2981
I733
sS'SHREEKRPOL'
p2982
I3303
sS'506803'
p2983
I1198
sS'ZUARIAGRO'
p2984
I-1
sS'506808'
p2985
I4057
sS'LUMAXAUTO'
p2986
I2209
sS'517264'
p2987
I1153
sS'509692'
p2988
I1660
sS'MODILUFT'
p2989
I3672
sS'509695'
p2990
I913
sS'PGEL'
p2991
I2767
sS'CIMMCO'
p2992
I740
sS'531360'
p2993
I1332
sS'GINNIFILA'
p2994
I1285
sS'512529'
p2995
I2881
sS'517001'
p2996
I536
sS'512527'
p2997
I3799
sS'SOUISPAT'
p2998
I3650
sS'520149'
p2999
I2252
sS'520145'
p3000
I1125
sS'COX&KINGS;'
p3001
I817
sS'520141'
p3002
I3565
sS'CAMLIN'
p3003
I-1
sS'MADRASFERT'
p3004
I2249
sS'524808'
p3005
I2880
sS'524804'
p3006
I337
sS'506113'
p3007
I2174
sS'APPLEIND'
p3008
I224
sS'MANALIPETC'
p3009
I2299
sS'507442'
p3010
I928
sS'KPIT'
p3011
I2093
sS'RAMSARUP'
p3012
I3104
sS'505978'
p3013
I4040
sS'526668'
p3014
I1962
sS'526666'
p3015
I504
sS'526662'
p3016
I3074
sS'507998'
p3017
I3584
sS'503691'
p3018
I3327
sS'503699'
p3019
I1275
sS'538962'
p3020
I2220
sS'526409'
p3021
I1953
sS'SANGAMIND'
p3022
I3361
sS'JUBLFOOD'
p3023
I1912
sS'526403'
p3024
I3155
sS'526407'
p3025
I3213
sS'METKORE'
p3026
I2223
sS'CORPBANK'
p3027
I808
sS'PONDYOXIDE'
p3028
I2922
sS'GULFOILCOR'
p3029
I-1
sS'530763'
p3030
I608
sS'511377'
p3031
I2376
sS'533632'
p3032
I2681
sS'JAYNECOIND'
p3033
I1844
sS'532444'
p3034
I3880
sS'SWELECTES'
p3035
I3264
sS'GSS'
p3036
I1379
sS'ASHCONIUL'
p3037
I278
sS'SHREDIGCEM'
p3038
I3509
sS'TIL'
p3039
I3968
sS'GSL'
p3040
I1376
sS'505590'
p3041
I3417
sS'505592'
p3042
I3536
sS'SASKEN'
p3043
I3396
sS'IPAPPM'
p3044
I1581
sS'GULFCORP'
p3045
I1425
sS'514470'
p3046
I4339
sS'RAJSREESUG'
p3047
I3087
sS'RELIGAREGO'
p3048
I3177
sS'METALFORGE'
p3049
I94
sS'KHAITANELE'
p3050
I2028
sS'GULPOLY'
p3051
I1427
sS'BHARATFORG'
p3052
I493
sS'JSWISPAT'
p3053
I1910
sS'VAIBHAVGEM'
p3054
I-1
sS'531463'
p3055
I310
sS'SAMBHAAV'
p3056
I3346
sS'531460'
p3057
I795
sS'531467'
p3058
I2919
sS'531465'
p3059
I2659
sS'532271'
p3060
I843
sS'TDPOWERSYS'
p3061
I3928
sS'532276'
p3062
I3859
sS'532868'
p3063
I954
sS'532274'
p3064
I-1
sS'UPERGANGES'
p3065
I4129
sS'KINETICMOT'
p3066
I2044
sS'SMARTLINK'
p3067
I3616
sS'US64BONDS'
p3068
I4138
sS'ARSBONDS'
p3069
I255
sS'GSPL'
p3070
I1420
sS'506618'
p3071
I3008
sS'514296'
p3072
I1686
sS'514298'
p3073
I1736
sS'506615'
p3074
I105
sS'OSWALMIN'
p3075
I2752
sS'516038'
p3076
I3638
sS'516032'
p3077
I3385
sS'516030'
p3078
I4364
sS'MOTOGENFIN'
p3079
I2465
sS'PODARPIGMT'
p3080
I2905
sS'513023'
p3081
I2570
sS'530735'
p3082
I3796
sS'ORIENTALTL'
p3083
I2738
sS'SUNFLAG'
p3084
I3787
sS'RELINFRA'
p3085
I3168
sS'NITINSPIN'
p3086
I2646
sS'519214'
p3087
I4334
sS'522142'
p3088
I3932
sS'530657'
p3089
I1300
sS'533389'
p3090
I3490
sS'530655'
p3091
I1336
sS'521178'
p3092
I3695
sS'530651'
p3093
I3625
sS'521174'
p3094
I251
sS'521176'
p3095
I1242
sS'533385'
p3096
I2532
sS'512191'
p3097
I3018
sS'506172'
p3098
I3348
sS'512199'
p3099
I803
sS'504966'
p3100
I3977
sS'506170'
p3101
I1542
sS'504960'
p3102
I3738
sS'504961'
p3103
I3920
sS'WINSOMEDJ'
p3104
I4292
sS'509488'
p3105
I1353
sS'ORIENTLTD'
p3106
I2734
sS'DELTACORP'
p3107
I895
sS'506178'
p3108
I2031
sS'CHAMBLFERT'
p3109
I700
sS'519500'
p3110
I544
sS'521194'
p3111
I3575
sS'507050'
p3112
I444
sS'503229'
p3113
I3590
sS'503738'
p3114
I1376
sS'511740'
p3115
I2375
sS'511742'
p3116
I729
sS'WELSYNTEX'
p3117
I4321
sS'TIJARIA'
p3118
I3867
sS'SAMBANDAM'
p3119
I3345
sS'523236'
p3120
I3537
sS'523230'
p3121
I1827
sS'523232'
p3122
I796
sS'532479'
p3123
I1781
sS'532478'
p3124
I4108
sS'532470'
p3125
I2342
sS'532475'
p3126
I226
sS'532477'
p3127
I4093
sS'531925'
p3128
I3468
sS'531923'
p3129
I916
sS'RTL'
p3130
I-1
sS'GREENFIRE'
p3131
I2658
sS'531928'
p3132
I1324
sS'531929'
p3133
I1721
sS'526347'
p3134
I1035
sS'ELAND'
p3135
I2481
sS'532718'
p3136
I2942
sS'532719'
p3137
I545
sS'532714'
p3138
I2003
sS'532715'
p3139
I1287
sS'532716'
p3140
I1282
sS'532717'
p3141
I1685
sS'532710'
p3142
I3320
sS'532711'
p3143
I3790
sS'532712'
p3144
I3165
sS'532713'
p3145
I3337
sS'GESHIP'
p3146
I1361
sS'503641'
p3147
I1372
sS'CORAL-HUB'
p3148
I798
sS'590053'
p3149
I1979
sS'590051'
p3150
I3334
sS'590050'
p3151
I833
sS'590057'
p3152
I2658
sS'590056'
p3153
I3340
sS'590055'
p3154
I2920
sS'590054'
p3155
I1861
sS'SUPREMEINF'
p3156
I3810
sS'SUPREMEIND'
p3157
I3809
sS'590058'
p3158
I3505
sS'500427'
p3159
I4089
sS'500426'
p3160
I4087
sS'500425'
p3161
I161
sS'500423'
p3162
I-1
sS'500422'
p3163
I4012
sS'500420'
p3164
I4000
sS'500429'
p3165
I4095
sS'500336'
p3166
I3824
sS'NESTLEIND'
p3167
I2596
sS'JOCIL'
p3168
I1895
sS'MADHURFOOD'
p3169
I2243
sS'514043'
p3170
I1504
sS'514045'
p3171
I607
sS'524276'
p3172
I972
sS'524270'
p3173
I4002
sS'FMGOETZE'
p3174
I1136
sS'SMLISUZU'
p3175
I3618
sS'524654'
p3176
I2569
sS'AVANTIFEED'
p3177
I352
sS'PEACOCKIND'
p3178
I-1
sS'533408'
p3179
I538
sS'533407'
p3180
I738
sS'LGBFORGE'
p3181
I2168
sS'533402'
p3182
I1727
sS'533401'
p3183
I3442
sS'533400'
p3184
I1203
sS'DISHTV'
p3185
I948
sS'524310'
p3186
I4194
sS'524314'
p3187
I1421
sS'509715'
p3188
I1839
sS'506863'
p3189
I3844
sS'INDLMETER'
p3190
I1620
sS'506867'
p3191
I2339
sS'KHANDSE'
p3192
I2030
sS'517246'
p3193
I437
sS'INDOTECH'
p3194
I1685
sS'KOTHARIPRO'
p3195
I2088
sS'523127'
p3196
I1010
sS'JUMBO'
p3197
I1915
sS'PRAGBOSIMI'
p3198
I2934
sS'OMNITECH'
p3199
I2712
sS'526500'
p3200
I3730
sS'ROHITFERRO'
p3201
I3220
sS'509675'
p3202
I1571
sS'523592'
p3203
I1858
sS'523594'
p3204
I2116
sS'523596'
p3205
I1777
sS'523846'
p3206
I3614
sS'RECLTD'
p3207
I3258
sS'523844'
p3208
I1766
sS'523842'
p3209
I3802
sS'523840'
p3210
I1726
sS'JUBLINDS'
p3211
I1913
sS'521226'
p3212
I4099
sS'512505'
p3213
I2368
sS'521228'
p3214
I3919
sS'539122'
p3215
I568
sS'506285'
p3216
I435
sS'ENERGYDEV'
p3217
I1053
sS'538836'
p3218
I2227
sS'538835'
p3219
I1582
sS'538567'
p3220
I1210
sS'526604'
p3221
I2184
sS'HINDZINC'
p3222
I1534
sS'INDUSFILA'
p3223
I1698
sS'531715'
p3224
I3559
sS'531717'
p3225
I4219
sS'506134'
p3226
I1997
sS'506131'
p3227
I1656
sS'531712'
p3228
I3043
sS'BHAGWATIHO'
p3229
I-1
sS'502901'
p3230
I1831
sS'533244'
p3231
I1598
sS'526642'
p3232
I2419
sS'526640'
p3233
I3239
sS'522080'
p3234
I4287
sS'522085'
p3235
I3742
sS'533248'
p3236
I1413
sS'522087'
p3237
I3769
sS'524342'
p3238
I1677
sS'SPENTEX'
p3239
I3669
sS'TIIL '
p3240
I-1
sS'XCHANGING'
p3241
I4356
sS'PETRONET'
p3242
I2864
sS'524488'
p3243
I3842
sS'524480'
p3244
I3201
sS'524484'
p3245
I4011
sS'523242'
p3246
I2575
sS'533655'
p3247
I3869
sS'TATACHEM'
p3248
I3904
sS'511359'
p3249
I53
sS'511357'
p3250
I1941
sS'511355'
p3251
I1638
sS'532958'
p3252
I1088
sS'UNIVCABLES'
p3253
I4119
sS'533719'
p3254
I1576
sS'500850'
p3255
I1662
sS'GOKEX'
p3256
I1319
sS'532480'
p3257
I133
sS'INDRAMEDCO'
p3258
I1694
sS'532481'
p3259
I2656
sS'532950'
p3260
I2312
sS'RELCNX100'
p3261
I3033
sS'532951'
p3262
I1379
sS'FINANTECH'
p3263
I1152
sS'HMT'
p3264
I1551
sS'NATNLSTEEL'
p3265
I2564
sS'532485'
p3266
I410
sS'515055'
p3267
I183
sS'515059'
p3268
I2244
sS'LOGIXMICRO'
p3269
I-1
sS'CREST'
p3270
I3478
sS'INDIALEASE'
p3271
I1644
sS'514450'
p3272
I2263
sS'FIRSTLEASE'
p3273
I1161
sS'514454'
p3274
I3651
sS'506655'
p3275
I3760
sS'FRLDVR'
p3276
I2804
sS'UMESLTD'
p3277
I4132
sS'523455'
p3278
I3935
sS'523457'
p3279
I2127
sS'531486'
p3280
I1148
sS'531481'
p3281
I467
sS'506457'
p3282
I1391
sS'IPRINGLTD'
p3283
I1772
sS'532299'
p3284
I3943
sS'532298'
p3285
I4388
sS'ONELIFECAP'
p3286
I2681
sS'500670'
p3287
I1409
sS'532296'
p3288
I1295
sS'500676'
p3289
I1293
sS'532290'
p3290
I547
sS'532293'
p3291
I3627
sS'UCALFUEL'
p3292
I4076
sS'RML'
p3293
I3112
sS'TRIL'
p3294
I4015
sS'BBL'
p3295
I490
sS'513228'
p3296
I2854
sS'513599'
p3297
I1521
sS'513597'
p3298
I3817
sS'TRANSCHEM'
p3299
I4012
sS'530281'
p3300
I3022
sS'530282'
p3301
I-1
sS'530283'
p3302
I4397
sS'530289'
p3303
I3657
sS'500046'
p3304
I465
sS'GHCL'
p3305
I1279
sS'518017'
p3306
I754
sS'518011'
p3307
I2006
sS'500040'
p3308
I690
sS'ROLATAN'
p3309
I3222
sS'SOMDUTTFIN'
p3310
I3636
sS'500042'
p3311
I431
sS'MANAPPURAM'
p3312
I2300
sS'GEINDSYS'
p3313
I1267
sS'538730'
p3314
I2771
sS'513043'
p3315
I3077
sS'SURYAROSNI'
p3316
I3824
sS'20MICRONS'
p3317
I4402
sS'530759'
p3318
I3734
sS'524109'
p3319
I1937
sS'524103'
p3320
I2180
sS'530755'
p3321
I801
sS'CASTROL'
p3322
I-1
sS'632149'
p3323
I4360
sS'530631'
p3324
I3227
sS'530635'
p3325
I3951
sS'KIRLOSBROS'
p3326
I2052
sS'WONDERLA'
p3327
I4291
sS'INFRATEL'
p3328
I1585
sS'511503'
p3329
I3860
sS'511501'
p3330
I489
sS'511507'
p3331
I4134
sS'511505'
p3332
I655
sS'511509'
p3333
I4271
sS'512311'
p3334
I3813
sS'519528'
p3335
I2657
sS'512319'
p3336
I3084
sS'523218'
p3337
I2040
sS'532905'
p3338
I3314
sS'532904'
p3339
I3810
sS'532907'
p3340
I1617
sS'532906'
p3341
I2295
sS'532901'
p3342
I2090
sS'532900'
p3343
I3424
sS'532455'
p3344
I3463
sS'532454'
p3345
I503
sS'532459'
p3346
I333
sS'532909'
p3347
I1350
sS'532908'
p3348
I3474
sS'DSKULKARNI'
p3349
I969
sS'531900'
p3350
I724
sS'531901'
p3351
I3315
sS'531902'
p3352
I1143
sS'531904'
p3353
I1985
sS'MOLDTKPAC'
p3354
I2439
sS'531909'
p3355
I2379
sS'JKUDYOG'
p3356
I1887
sS'512008'
p3357
I153
sS'501242'
p3358
I3923
sS'GVKPIL'
p3359
I1433
sS'VENUSREM'
p3360
I4205
sS'505160'
p3361
I3886
sS'505163'
p3362
I4392
sS'500444'
p3363
I4325
sS'500446'
p3364
I663
sS'500449'
p3365
I1530
sS'500448'
p3366
I1535
sS'ABHISHEK'
p3367
I35
sS'526365'
p3368
I3561
sS'526367'
p3369
I1239
sS'TIRUMALCHM'
p3370
I3964
sS'DUNCANSLTD'
p3371
I975
sS'504382'
p3372
I3591
sS'503863'
p3373
I3517
sS'504380'
p3374
I4234
sS'533469'
p3375
I535
sS'SAYAJHOTEL'
p3376
I-1
sS'533462'
p3377
I3939
sS'INERTIAIND'
p3378
I2406
sS'VIPPYSOLVX'
p3379
I4244
sS'SPICELEC'
p3380
I3667
sS'IMPEXFERRO'
p3381
I1621
sS'ALSTOMT&D;'
p3382
I238
sS'ZEENEWS'
p3383
I-1
sS'JASCHIND'
p3384
I1834
sS'514028'
p3385
I3082
sS'517224'
p3386
I3766
sS'BOROGLASS'
p3387
I581
sS'SUNILHITEC'
p3388
I3790
sS'531346'
p3389
I999
sS'531344'
p3390
I792
sS'GLODYNE'
p3391
I1303
sS'531340'
p3392
I462
sS'MODIPON'
p3393
I2433
sS'531349'
p3394
I2791
sS'532336'
p3395
I428
sS'532334'
p3396
I1470
sS'532335'
p3397
I158
sS'532332'
p3398
I839
sS'513699'
p3399
I3632
sS'532330'
p3400
I530
sS'532331'
p3401
I99
sS'PIIND'
p3402
I2882
sS'523862'
p3403
I930
sS'513691'
p3404
I1894
sS'532338'
p3405
I4176
sS'513693'
p3406
I2036
sS'CRISIL'
p3407
I829
sS'KSOILS'
p3408
I2106
sS'512075'
p3409
I3757
sS'TINPLATE'
p3410
I3977
sS'MADHUCON'
p3411
I2241
sS'533344'
p3412
I2997
sS'533888'
p3413
I3171
sS'RADICO'
p3414
I3047
sS'KABRAEXTRU'
p3415
I1937
sS'531737'
p3416
I2326
sS'531733'
p3417
I385
sS'531731'
p3418
I2119
sS'NITINFIRE'
p3419
I2645
sS'EVERESTIND'
p3420
I1097
sS'531739'
p3421
I1272
sS'531738'
p3422
I3576
sS'506159'
p3423
I2808
sS'MAXWELL'
p3424
I2350
sS'508922'
p3425
I3709
sS'MYSOREBANK'
p3426
I3716
sS'508929'
p3427
I1903
sS'507405'
p3428
I4261
sS'507155'
p3429
I1803
sS'507150'
p3430
I1649
sS'IL&FSTRANS;'
p3431
I1619
sS'530925'
p3432
I3105
sS'526991'
p3433
I327
sS'526622'
p3434
I2507
sS'JINDWORLD'
p3435
I1878
sS'533269'
p3436
I4297
sS'533268'
p3437
I3425
sS'533267'
p3438
I654
sS'526628'
p3439
I103
sS'533265'
p3440
I1229
sS'533264'
p3441
I1024
sS'533263'
p3442
I2731
sS'533262'
p3443
I3102
sS'533261'
p3444
I1073
sS'533260'
p3445
I661
sS'533266'
p3446
I3936
sS'PTL'
p3447
I2999
sS'UTVSOF'
p3448
I4143
sS'526193'
p3449
I3236
sS'PTC'
p3450
I2998
sS'526195'
p3451
I2593
sS'MUNJALAU'
p3452
I2496
sS'533301'
p3453
I3484
sS'533676'
p3454
I1583
sS'504176'
p3455
I1494
sS'MARICO'
p3456
I2325
sS'HINDMOTORS'
p3457
I1528
sS'511333'
p3458
I4273
sS'ORGINFO'
p3459
I2725
sS'500878'
p3460
I672
sS'500870'
p3461
I664
sS'FULFORD'
p3462
I1198
sS'500877'
p3463
I223
sS'TRITON'
p3464
I-1
sS'INDSWFTLTD'
p3465
I1632
sS'JAYSREETEA'
p3466
I1839
sS'DAAWAT'
p3467
I2206
sS'519039'
p3468
I4244
sS'523001'
p3469
I2987
sS'523007'
p3470
I207
sS'519031'
p3471
I3454
sS'BALPHARMA'
p3472
I400
sS'ROYALCUSHN'
p3473
I3236
sS'515030'
p3474
I273
sS'515037'
p3475
I2502
sS'515035'
p3476
I446
sS'531135'
p3477
I3311
sS'531134'
p3478
I1458
sS'531137'
p3479
I1270
sS'531131'
p3480
I2337
sS'VARUNSHIP'
p3481
I4189
sS'500388'
p3482
I3516
sS'500389'
p3483
I3581
sS'532105'
p3484
I2372
sS'500380'
p3485
I1883
sS'532106'
p3486
I3157
sS'500386'
p3487
I3466
sS'532100'
p3488
I1679
sS'500384'
p3489
I586
sS'532102'
p3490
I3412
sS'GEMSPIN'
p3491
I1268
sS'500126'
p3492
I2383
sS'500655'
p3493
I1251
sS'500124'
p3494
I965
sS'500125'
p3495
I1009
sS'PSMSPGMILL'
p3496
I2982
sS'500123'
p3497
I1017
sS'500120'
p3498
I938
sS'523477'
p3499
I1398
sS'ELGIRUBCO'
p3500
I1030
sS'523475'
p3501
I2202
sS'KESARENT'
p3502
I2016
sS'501833'
p3503
I735
sS'501831'
p3504
I766
sS'GREAVESCOT'
p3505
I1363
sS'TARAPUR'
p3506
I3901
sS'GAMMONIND'
p3507
I1232
sS'SAMTELTD'
p3508
I3353
sS'ORIENTREF'
p3509
I2683
sS'506041'
p3510
I2278
sS'518075'
p3511
I3814
sS'513063'
p3512
I4010
sS'RAMCOCEM'
p3513
I3030
sS'530777'
p3514
I1714
sS'530771'
p3515
I2064
sS'530773'
p3516
I1791
sS'530779'
p3517
I985
sS'524129'
p3518
I4241
sS'BSLNIFTY'
p3519
I539
sS'SHREERAMA'
p3520
I3527
sS'530619'
p3521
I296
sS'SIMPLEXCAS'
p3522
I3585
sS'530611'
p3523
I3747
sS'SHREYANIND'
p3524
I3538
sS'530617'
p3525
I3349
sS'530615'
p3526
I1246
sS'MANGALAM'
p3527
I2304
sS'AXISCADES'
p3528
I364
sS'SEZALGLASS'
p3529
I-1
sS'METALPIPE'
p3530
I2386
sS'504920'
p3531
I3302
sS'SOMANYCERA'
p3532
I3640
sS'GRANULES'
p3533
I1352
sS'511525'
p3534
I3306
sS'511523'
p3535
I2650
sS'512332'
p3536
I531
sS'VMART'
p3537
I4154
sS'PRAENG'
p3538
I2936
sS'BANARISUG'
p3539
I424
sS'WOPOLIN'
p3540
I4350
sS'NATHBIOGEN'
p3541
I2527
sS'531692'
p3542
I2035
sS'531693'
p3543
I3544
sS'531694'
p3544
I3060
sS'531695'
p3545
I936
sS'531699'
p3546
I3798
sS'BRIGHTBROS'
p3547
I596
sS'500201'
p3548
I1642
sS'523277'
p3549
I1432
sS'FSL '
p3550
I-1
sS'500206'
p3551
I1689
sS'TRANSPEK'
p3552
I4019
sS'532929'
p3553
I595
sS'532928'
p3554
I4015
sS'532927'
p3555
I1002
sS'532926'
p3556
I1919
sS'532925'
p3557
I1991
sS'532924'
p3558
I2074
sS'532923'
p3559
I3185
sS'532922'
p3560
I1005
sS'532921'
p3561
I2495
sS'532920'
p3562
I1047
sS'ULTRACEMCO'
p3563
I4082
sS'517166'
p3564
I3667
sS'JINDCOT'
p3565
I1869
sS'531962'
p3566
I4173
sS'531963'
p3567
I4120
sS'531960'
p3568
I1872
sS'SANGHIPOLY'
p3569
I3364
sS'GEMINI'
p3570
I1269
sS'ANGIND'
p3571
I192
sS'TAJGVK'
p3572
I3883
sS'590097'
p3573
I2080
sS'590096'
p3574
I2185
sS'590095'
p3575
I1215
sS'590094'
p3576
I1128
sS'522273'
p3577
I93
sS'590091'
p3578
I4035
sS'590090'
p3579
I2693
sS'590099'
p3580
I3023
sS'522279'
p3581
I3398
sS'OMAXE'
p3582
I2705
sS'521064'
p3583
I4032
sS'521062'
p3584
I2607
sS'521068'
p3585
I1544
sS'500469'
p3586
I1135
sS'500463'
p3587
I84
sS'505141'
p3588
I3422
sS'500460'
p3589
I2483
sS'500467'
p3590
I1459
sS'500465'
p3591
I4189
sS'500464'
p3592
I4076
sS'JAYBARMARU'
p3593
I1837
sS'524727'
p3594
I3658
sS'508486'
p3595
I1468
sS'524723'
p3596
I517
sS'PNBGILTS'
p3597
I2903
sS'533193'
p3598
I2053
sS'533192'
p3599
I2000
sS'526381'
p3600
I2837
sS'512479'
p3601
I1259
sS'532439'
p3602
I1330
sS'512477'
p3603
I469
sS'PRITHVI'
p3604
I2978
sS'SHREEKRPET'
p3605
I3301
sS'533444'
p3606
I3971
sS'LIBERTSHOE'
p3607
I2170
sS'BAJAJTEMPO'
p3608
I1173
sS'RANEHOLDIN'
p3609
I3111
sS'SAGCEM'
p3610
I3323
sS'PFC '
p3611
I-1
sS'530187'
p3612
I325
sS'530185'
p3613
I3821
sS'WELENT'
p3614
I4320
sS'NIFETF'
p3615
I2521
sS'CERA'
p3616
I691
sS'TANLA'
p3617
I3896
sS'SYNCOM'
p3618
I3858
sS'517208'
p3619
I1558
sS'SHRIYAMSEC'
p3620
I3473
sS'SPMLINFRA'
p3621
I3676
sS'517201'
p3622
I3853
sS'517206'
p3623
I2210
sS'509631'
p3624
I1481
sS'509635'
p3625
I1518
sS'POCHIRAJU '
p3626
I-1
sS'IBWSL'
p3627
I1655
sS'MMFL'
p3628
I2422
sS'SBIN'
p3629
I3715
sS'531363'
p3630
I1986
sS'531364'
p3631
I4391
sS'531365'
p3632
I2545
sS'531366'
p3633
I2072
sS'531367'
p3634
I957
sS'AKZOINDIA'
p3635
I112
sS'532310'
p3636
I3527
sS'532311'
p3637
I4058
sS'532312'
p3638
I1277
sS'532313'
p3639
I2284
sS'532315'
p3640
I3942
sS'532316'
p3641
I3308
sS'532318'
p3642
I1269
sS'SRHHYPOLTD'
p3643
I3683
sS'HBSTOCK'
p3644
I1473
sS'504093'
p3645
I2793
sS'520127'
p3646
I412
sS'520121'
p3647
I231
sS'520123'
p3648
I29
sS'SARASIND'
p3649
I3383
sS'PANACEABIO'
p3650
I2791
sS'KEYCORPSER'
p3651
I2023
sS'531750'
p3652
I1052
sS'531752'
p3653
I4316
sS'531754'
p3654
I1158
sS'531758'
p3655
I1289
sS'MILTONPLAS'
p3656
I-1
sS'526817'
p3657
I722
sS'526813'
p3658
I3050
sS'KALPATPOWR'
p3659
I1952
sS'BIRLACOT'
p3660
I533
sS'508900'
p3661
I3843
sS'508905'
p3662
I3617
sS'508906'
p3663
I1097
sS'SUJANAUNI'
p3664
I3766
sS'ANDREWYULE'
p3665
I191
sS'ICDSLTD'
p3666
I1594
sS'522042'
p3667
I3615
sS'533209'
p3668
I3351
sS'533208'
p3669
I1040
sS'526608'
p3670
I1025
sS'533200'
p3671
I3887
sS'533203'
p3672
I3901
sS'533202'
p3673
I2643
sS'526971'
p3674
I929
sS'533204'
p3675
I2301
sS'533207'
p3676
I1848
sS'533206'
p3677
I3606
sS'532300'
p3678
I4346
sS'532753'
p3679
I282
sS'RAMKY'
p3680
I3102
sS'KERNEX'
p3681
I2014
sS'JAICORPLTD'
p3682
I1811
sS'PVP'
p3683
I3015
sS'PVR'
p3684
I3016
sS'RUCHISTRIP'
p3685
I3254
sS'530407'
p3686
I1069
sS'530405'
p3687
I1868
sS'530403'
p3688
I4171
sS'530401'
p3689
I4242
sS'NIFTYBEES'
p3690
I2528
sS'FCSSOFT'
p3691
I1132
sS'FRL'
p3692
I2802
sS'511644'
p3693
I2707
sS'511640'
p3694
I3362
sS'511642'
p3695
I4345
sS'ELECTHERM'
p3696
I1025
sS'523398'
p3697
I1546
sS'532555'
p3698
I2565
sS'532553'
p3699
I4320
sS'523391'
p3700
I2543
sS'523395'
p3701
I4404
sS'ECLERX'
p3702
I1002
sS'OISL'
p3703
I2692
sS'530537'
p3704
I2315
sS'MOLDPLAST'
p3705
I2438
sS'504731'
p3706
I1659
sS'503101'
p3707
I2320
sS'503100'
p3708
I2877
sS'ANANTRAJ'
p3709
I183
sS'RAMCOIND'
p3710
I3099
sS'DTIL'
p3711
I855
sS'530821'
p3712
I3698
sS'523025'
p3713
I3322
sS'CTE '
p3714
I-1
sS'523021'
p3715
I3210
sS'523023'
p3716
I3593
sS'BALKRISIND'
p3717
I407
sS'RUCHISOYA'
p3718
I3253
sS'517477'
p3719
I1033
sS'GENESYS'
p3720
I1271
sS'VALUEIND'
p3721
I4175
sS'SQSBFSI'
p3722
I3961
sS'531115'
p3723
I1920
sS'531112'
p3724
I445
sS'531111'
p3725
I1343
sS'GARDENSILK'
p3726
I1245
sS'EASTSILK'
p3727
I997
sS'531119'
p3728
I675
sS'531118'
p3729
I2781
sS'532127'
p3730
I2425
sS'505285'
p3731
I2015
sS'532124'
p3732
I3161
sS'532123'
p3733
I606
sS'532121'
p3734
I900
sS'505283'
p3735
I2057
sS'532129'
p3736
I1491
sS'NOVOPANIND'
p3737
I2664
sS'531807'
p3738
I1718
sS'SRGINFOTEC'
p3739
I3306
sS'BLISSGVS'
p3740
I548
sS'506414'
p3741
I943
sS'500101'
p3742
I268
sS'500102'
p3743
I408
sS'500103'
p3744
I495
sS'500104'
p3745
I1531
sS'HBPORT'
p3746
I1472
sS'500106'
p3747
I1607
sS'500108'
p3748
I2267
sS'500109'
p3749
I2308
sS'524552'
p3750
I3479
sS'GOVINRUBER'
p3751
I1344
sS'STYABS'
p3752
I3272
sS'524558'
p3753
I2606
sS'515018'
p3754
I3154
sS'513262'
p3755
I3723
sS'513265'
p3756
I2486
sS'513269'
p3757
I2296
sS'518051'
p3758
I4236
sS'VIKASHMET'
p3759
I4230
sS'536666'
p3760
I3294
sS'ASTRAL'
p3761
I323
sS'532291'
p3762
I2002
sS'RICOAUTO'
p3763
I3199
sS'TELEDATAIT'
p3764
I3940
sS'500160'
p3765
I1381
sS'530799'
p3766
I205
sS'530797'
p3767
I3510
sS'530795'
p3768
I3780
sS'SPYL'
p3769
I3484
sS'CRESTANI'
p3770
I826
sS'CPIL'
p3771
I-1
sS'517417'
p3772
I2838
sS'512135'
p3773
I1059
sS'517411'
p3774
I3562
sS'INFOTECENT'
p3775
I-1
sS'504903'
p3776
I3132
sS'504908'
p3777
I3420
sS'SHAHALLOYS'
p3778
I3452
sS'ORBTEXP'
p3779
I2721
sS'512359'
p3780
I3234
sS'512351'
p3781
I2253
sS'GLOBALVECT'
p3782
I1301
sS'512355'
p3783
I212
sS'517415'
p3784
I2164
sS'ASSAMCO'
p3785
I314
sS'REMSONSIND'
p3786
I3184
sS'MAHABANK'
p3787
I2232
sS'506180'
p3788
I3520
sS'512131'
p3789
I3573
sS'530899'
p3790
I295
sS'532494'
p3791
I2394
sS'532493'
p3792
I322
sS'532491'
p3793
I1001
sS'530891'
p3794
I487
sS'521182'
p3795
I3428
sS'530897'
p3796
I2614
sS'532498'
p3797
I3552
sS'532949'
p3798
I2891
sS'532948'
p3799
I4053
sS'502880'
p3800
I1511
sS'532941'
p3801
I802
sS'532940'
p3802
I1801
sS'532942'
p3803
I2069
sS'532945'
p3804
I3553
sS'532944'
p3805
I2715
sS'532947'
p3806
I1776
sS'532946'
p3807
I418
sS'531944'
p3808
I3444
sS'531945'
p3809
I3792
sS'531942'
p3810
I2407
sS'ORIENTCERA'
p3811
I-1
sS'SEAMECLTD'
p3812
I3427
sS'504351'
p3813
I1050
sS'503657'
p3814
I4199
sS'SAMTEL'
p3815
I3352
sS'508136'
p3816
I376
sS'IGARASHI'
p3817
I1613
sS'522251'
p3818
I679
sS'522257'
p3819
I3085
sS'522259'
p3820
I1950
sS'TNPETRO'
p3821
I3891
sS'LICHSGFIN'
p3822
I2173
sS'521046'
p3823
I4179
sS'BIRLAPOWER'
p3824
I536
sS'521048'
p3825
I91
sS'526015'
p3826
I2010
sS'INFOMEDIA'
p3827
I1708
sS'BROOKS'
p3828
I602
sS'524709'
p3829
I2535
sS'AKSHOPTFBR'
p3830
I110
sS'524701'
p3831
I2004
sS'524703'
p3832
I3358
sS'SHAKTIPUMP'
p3833
I3458
sS'SHALPAINTS'
p3834
I3461
sS'REGENCERAM'
p3835
I3154
sS'GOLDBEES'
p3836
I1215
sS'MYSORPETRO'
p3837
I2510
sS'KRONECOMM'
p3838
I2104
sS'MUKATPIPE'
p3839
I2484
sS'507552'
p3840
I1171
sS'ISPATALLOY'
p3841
I1588
sS'EMAMILTD'
p3842
I1039
sS'503823'
p3843
I540
sS'511108'
p3844
I3499
sS'501756'
p3845
I3957
sS'TI'
p3846
I3970
sS'GOLDINFRA'
p3847
I1330
sS'INGERRAND'
p3848
I1719
sS'OILCOUNTUB'
p3849
I2698
sS'BHARTISHIP'
p3850
I501
sS'GOLDIAM'
p3851
I1329
sS'JUBILANT'
p3852
I1914
sS'523828'
p3853
I2380
sS'523539'
p3854
I2951
sS'523537'
p3855
I220
sS'523826'
p3856
I3655
sS'531301'
p3857
I4086
sS'531306'
p3858
I931
sS'531307'
p3859
I319
sS'531304'
p3860
I2677
sS'532378'
p3861
I4118
sS'532379'
p3862
I1775
sS'532372'
p3863
I4250
sS'CINEMAX '
p3864
I-1
sS'532370'
p3865
I3100
sS'532371'
p3866
I3917
sS'532376'
p3867
I2476
sS'CONSOFINVT'
p3868
I790
sS'532374'
p3869
I3737
sS'PCJEWELLER'
p3870
I2778
sS'A2ZINFRA'
p3871
I17
sS'506991'
p3872
I2653
sS'NRBBEARING'
p3873
I2668
sS'526512'
p3874
I1754
sS'NIYATILEAS'
p3875
I2650
sS'531778'
p3876
I1938
sS'506194'
p3877
I3459
sS'531771'
p3878
I4005
sS'531777'
p3879
I1744
sS'506190'
p3880
I3395
sS'531775'
p3881
I748
sS'531774'
p3882
I4037
sS'526833'
p3883
I184
sS'526835'
p3884
I3577
sS'526839'
p3885
I667
sS'UBHOLDINGS'
p3886
I4106
sS'MASTEK'
p3887
I2338
sS'PARRYSUGAR'
p3888
I2825
sS'517080'
p3889
I4348
sS'508969'
p3890
I3768
sS'524084'
p3891
I2448
sS'524082'
p3892
I1456
sS'524080'
p3893
I1462
sS'522064'
p3894
I1552
sS'KAMATHOTEL'
p3895
I1962
sS'526957'
p3896
I4144
sS'526955'
p3897
I37
sS'533220'
p3898
I2400
sS'533227'
p3899
I301
sS'526951'
p3900
I1325
sS'533229'
p3901
I391
sS'533228'
p3902
I3611
sS'BILENERGY'
p3903
I518
sS'526959'
p3904
I813
sS'532677'
p3905
I4230
sS'532676'
p3906
I2842
sS'532675'
p3907
I2978
sS'531452'
p3908
I2576
sS'500290'
p3909
I2475
sS'532497'
p3910
I3047
sS'532671'
p3911
I1486
sS'526481'
p3912
I2876
sS'526483'
p3913
I3952
sS'526488'
p3914
I2680
sS'511489'
p3915
I1237
sS'VIVIDHA'
p3916
I4253
sS'GTLINFRA'
p3917
I1380
sS'530429'
p3918
I286
sS'519463'
p3919
I1593
sS'530421'
p3920
I2120
sS'530425'
p3921
I3785
sS'530427'
p3922
I731
sS'535958'
p3923
I1579
sS'590118'
p3924
I-1
sS'590119'
p3925
I365
sS'590113'
p3926
I1447
sS'590110'
p3927
I3024
sS'590111'
p3928
I2340
sS'590117'
p3929
I2276
sS'590114'
p3930
I264
sS'590115'
p3931
I2462
sS'GANGOTRI'
p3932
I1242
sS'511664'
p3933
I472
sS'511660'
p3934
I2961
sS'CAMPALLIED'
p3935
I649
sS'BAJAJELEC'
p3936
I392
sS'500830'
p3937
I770
sS'AMTL'
p3938
I5
sS'SRTRANSFIN'
p3939
I3554
sS'526225'
p3940
I549
sS'526227'
p3941
I1147
sS'503127'
p3942
I3068
sS'SIL'
p3943
I3706
sS'MOIL'
p3944
I2437
sS'PITTILAM'
p3945
I2896
sS'BEDMUTHA'
p3946
I442
sS'531171'
p3947
I907
sS'531173'
p3948
I3862
sS'531172'
p3949
I2941
sS'531175'
p3950
I592
sS'531176'
p3951
I2370
sS'531179'
p3952
I247
sS'531178'
p3953
I436
sS'FINPIPE'
p3954
I1157
sS'MUTHOOTCAP'
p3955
I2504
sS'BBTC'
p3956
I569
sS'532141'
p3957
I187
sS'532140'
p3958
I3216
sS'532143'
p3959
I3608
sS'532145'
p3960
I1444
sS'532144'
p3961
I4322
sS'500346'
p3962
I3009
sS'500344'
p3963
I3011
sS'500343'
p3964
I3001
sS'LOTTEINDIA'
p3965
I2201
sS'531531'
p3966
I1466
sS'531530'
p3967
I468
sS'WOCKPHARMA'
p3968
I4346
sS'SAYAJIHOTL'
p3969
I3410
sS'SUPPETRO'
p3970
I3811
sS'531537'
p3971
I583
sS'500168'
p3972
I1338
sS'531392'
p3973
I299
sS'ANDHRACEMT'
p3974
I187
sS'500690'
p3975
I1418
sS'SUTLEJTEX'
p3976
I3836
sS'505400'
p3977
I3948
sS'500166'
p3978
I1337
sS'500164'
p3979
I1314
sS'500165'
p3980
I1974
sS'GILLETTE'
p3981
I1283
sS'524576'
p3982
I4269
sS'524572'
p3983
I2873
sS'524570'
p3984
I2905
sS'EICHERMOT'
p3985
I1008
sS'514215'
p3986
I525
sS'513534'
p3987
I4185
sS'513536'
p3988
I2166
sS'514211'
p3989
I3771
sS'513530'
p3990
I3727
sS'513532'
p3991
I2932
sS'HCC'
p3992
I1519
sS'534425'
p3993
I3273
sS'SPICETELE'
p3994
I3670
sS'EVEREADY'
p3995
I1094
sS'DCMSHRIRAM'
p3996
I879
sS'516110'
p3997
I2872
sS'FARMAXIND'
p3998
I1128
sS'HITACHIHOM'
p3999
I1546
sS'524164'
p4000
I1769
sS'SUMEETINDS'
p4001
I3771
sS'IITL'
p4002
I1702
sS'506690'
p4003
I4088
sS'JSWENERGY'
p4004
I1909
sS'TVSSRICHAK'
p4005
I4064
sS'INDIANCARD'
p4006
I1660
sS'PLETHICO'
p4007
I2902
sS'512113'
p4008
I862
sS'517437'
p4009
I979
sS'520081'
p4010
I995
sS'HEROMOTOCO'
p4011
I1489
sS'520086'
p4012
I3567
sS'JHS'
p4013
I1866
sS'ATNINTER'
p4014
I329
sS'ASHOKA'
p4015
I290
sS'SHLAKSHMI'
p4016
I3548
sS'512377'
p4017
I2258
sS'519586'
p4018
I4355
sS'519588'
p4019
I912
sS'512379'
p4020
I825
sS'IVRCLINFRA'
p4021
I1791
sS'MBSWITCH'
p4022
I2218
sS'STRTECH'
p4023
I3737
sS'532961'
p4024
I3603
sS'532960'
p4025
I1654
sS'532967'
p4026
I2050
sS'532966'
p4027
I3986
sS'532544'
p4028
I1651
sS'532969'
p4029
I723
sS'GTNIND'
p4030
I1382
sS'502865'
p4031
I1172
sS'MAHAPEXLTD'
p4032
I2261
sS'HINVDIR'
p4033
I1566
sS'532543'
p4034
I3325
sS'CEATFIN'
p4035
I694
sS'532548'
p4036
I689
sS'SANGHIIND'
p4037
I3363
sS'KOTAKNIFTY'
p4038
I2083
sS'522233'
p4039
I1865
sS'522231'
p4040
I786
sS'UTTAMSUGAR'
p4041
I4142
sS'522235'
p4042
I2409
sS'GODREJCP'
p4043
I1313
sS'RPPINFRA'
p4044
I3039
sS'BALRAMCHIN'
p4045
I411
sS'521022'
p4046
I3828
sS'526033'
p4047
I832
sS'524760'
p4048
I267
sS'524764'
p4049
I2678
sS'CELEBRITY'
p4050
I677
sS'SUDAR'
p4051
I3759
sS'533159'
p4052
I228
sS'533158'
p4053
I3958
sS'533155'
p4054
I1912
sS'533154'
p4055
I1705
sS'533157'
p4056
I3858
sS'533156'
p4057
I4191
sS'533151'
p4058
I856
sS'533150'
p4059
I1315
sS'533152'
p4060
I2356
sS'SUZLONFIBR'
p4061
I3622
sS'CEENIKEXPO'
p4062
I675
sS'503804'
p4063
I3543
sS'503806'
p4064
I3686
sS'504673'
p4065
I4122
sS'504671'
p4066
I710
sS'SENTINEL'
p4067
I-1
sS'511122'
p4068
I1159
sS'PRICOL'
p4069
I2966
sS'BUWALKASTL'
p4070
I514
sS'511128'
p4071
I1227
sS'MAGMA'
p4072
I2255
sS'INDIAGLYCO'
p4073
I1642
sS'505678'
p4074
I818
sS'HCLTECH'
p4075
I1476
sS'526562'
p4076
I2846
sS'CINEMAXIN'
p4077
I633
sS'COUNCODOS'
p4078
I2592
sS'531099'
p4079
I3250
sS'531092'
p4080
I2703
sS'531091'
p4081
I4109
sS'531096'
p4082
I2466
sS'GEOJITBNPP'
p4083
I1276
sS'532688'
p4084
I782
sS'532689'
p4085
I3016
sS'532682'
p4086
I33
sS'532683'
p4087
I96
sS'532686'
p4088
I2014
sS'532687'
p4089
I3186
sS'532684'
p4090
I1098
sS'531324'
p4091
I3230
sS'531327'
p4092
I707
sS'531320'
p4093
I257
sS'531322'
p4094
I3549
sS'531323'
p4095
I3375
sS'531328'
p4096
I1603
sS'532354'
p4097
I2714
sS'532355'
p4098
I3941
sS'532356'
p4099
I4042
sS'532357'
p4100
I2488
sS'532350'
p4101
I2784
sS'532351'
p4102
I110
sS'532358'
p4103
I3938
sS'532359'
p4104
I1545
sS'ADHUNIK'
p4105
I60
sS'DREDGECORP'
p4106
I967
sS'ATLANTA'
p4107
I326
sS'SONATSOFTW'
p4108
I3644
sS'509895'
p4109
I3599
sS'516112'
p4110
I543
sS'DCMSRMCONS'
p4111
I-1
sS'VINATIORGA'
p4112
I4235
sS'530055'
p4113
I1457
sS'530057'
p4114
I1788
sS'526859'
p4115
I1748
sS'508941'
p4116
I2794
sS'530053'
p4117
I1496
sS'526853'
p4118
I519
sS'526851'
p4119
I239
sS'530059'
p4120
I2269
sS'512589'
p4121
I3602
sS'TECPRO'
p4122
I3936
sS'ISENSEX'
p4123
I2993
sS'ARSSINFRA'
p4124
I258
sS'CUMMINSIND'
p4125
I836
sS'512587'
p4126
I4396
sS'RPL'
p4127
I3173
sS'512585'
p4128
I1982
sS'522001'
p4129
I820
sS'CIBASPEC'
p4130
I737
sS'522005'
p4131
I340
sS'522004'
p4132
I434
sS'526931'
p4133
I1455
sS'526935'
p4134
I2355
sS'UGARSUGAR'
p4135
I4080
sS'INDIAINFO'
p4136
I-1
sS'QUINTEGRA'
p4137
I3026
sS'RELAXO'
p4138
I3160
sS'MOREPENLAB'
p4139
I2453
sS'ALMONDZ'
p4140
I140
sS'SURYALAXMI'
p4141
I3830
sS'530917'
p4142
I3243
sS'530663'
p4143
I1347
sS'530443'
p4144
I2048
sS'530441'
p4145
I2268
sS'530445'
p4146
I3772
sS'530449'
p4147
I3256
sS'511463'
p4148
I1899
sS'KGDENIM'
p4149
I2024
sS'MURLIIND'
p4150
I2501
sS'BROADCAST'
p4151
I601
sS'502455'
p4152
I3601
sS'502450'
p4153
I3447
sS'RPGCABLES'
p4154
I3240
sS'504112'
p4155
I2590
sS'511609'
p4156
I1723
sS'523359'
p4157
I3476
sS'511601'
p4158
I4363
sS'523357'
p4159
I1404
sS'511605'
p4160
I243
sS'523353'
p4161
I670
sS'511607'
p4162
I3503
sS'523351'
p4163
I714
sS'532518'
p4164
I1881
sS'532519'
p4165
I1884
sS'532513'
p4166
I4062
sS'532511'
p4167
I1102
sS'532516'
p4168
I3823
sS'532517'
p4169
I2839
sS'532514'
p4170
I1693
sS'532515'
p4171
I4059
sS'ICNX100'
p4172
I1584
sS'526209'
p4173
I2106
sS'INGVYSYABK'
p4174
I1718
sS'HOCL'
p4175
I1530
sS'NIITLTD'
p4176
I2624
sS'507794'
p4177
I2027
sS'507796'
p4178
I1864
sS'TCS'
p4179
I3907
sS'590134'
p4180
I2249
sS'TCI'
p4181
I4020
sS'DPSCLTD'
p4182
I962
sS'531158'
p4183
I666
sS'IL&FSENGG;'
p4184
I1617
sS'531153'
p4185
I4368
sS'531157'
p4186
I2726
sS'531156'
p4187
I125
sS'531155'
p4188
I1569
sS'RAINBOWPAP'
p4189
I3061
sS'500368'
p4190
I3253
sS'532168'
p4191
I-1
sS'PIRLIFE'
p4192
I-1
sS'532163'
p4193
I3388
sS'500361'
p4194
I3120
sS'505242'
p4195
I982
sS'532160'
p4196
I1419
sS'532167'
p4197
I2709
sS'532166'
p4198
I130
sS'500366'
p4199
I3223
sS'500367'
p4200
I3249
sS'SPARTEK'
p4201
I3662
sS'508306'
p4202
I2163
sS'507864'
p4203
I2889
sS'IPGETF'
p4204
I-1
sS'500144'
p4205
I1156
sS'500145'
p4206
I1161
sS'505426'
p4207
I861
sS'500147'
p4208
I1165
sS'500141'
p4209
I1139
sS'500142'
p4210
I1141
sS'SRHHLINDST'
p4211
I3688
sS'500148'
p4212
I4078
sS'524518'
p4213
I2096
sS'MAHSCOOTER'
p4214
I2273
sS'524516'
p4215
I381
sS'NDL'
p4216
I2549
sS'LPDC'
p4217
I2155
sS'HEG'
p4218
I1481
sS'518091'
p4219
I199
sS'530201'
p4220
I1951
sS'530207'
p4221
I591
sS'PILIND'
p4222
I2845
sS'INDOASAHI'
p4223
I1592
sS'SAKTHIFIN'
p4224
I3335
sS'TECHIN'
p4225
I3872
sS'TIMESGTY'
p4226
I3973
sS'POWERGRID'
p4227
I2929
sS'AIAENG'
p4228
I96
sS'CANDC '
p4229
I-1
sS'501233'
p4230
I484
sS'ACKRUTI'
p4231
I-1
sS'ROLTA'
p4232
I3223
sS'DIGJAM'
p4233
I942
sS'513517'
p4234
I3725
sS'513515'
p4235
I3679
sS'514234'
p4236
I3361
sS'513513'
p4237
I69
sS'513511'
p4238
I2796
sS'513519'
p4239
I2896
sS'514238'
p4240
I1614
sS'519612'
p4241
I2262
sS'517451'
p4242
I4049
sS'KIRLOSFERR'
p4243
I2054
sS'512175'
p4244
I4177
sS'KANDAGIRI'
p4245
I1968
sS'512179'
p4246
I3795
sS'RAJASPETRO'
p4247
I3071
sS'520066'
p4248
I1837
sS'SIMPLEXINF'
p4249
I3586
sS'512399'
p4250
I1976
sS'PHOENIXLL'
p4251
I2773
sS'512397'
p4252
I3128
sS'512393'
p4253
I3473
sS'PSUBNKBEES'
p4254
I2996
sS'TULIP'
p4255
I4052
sS'MVLIND'
p4256
I-1
sS'MALCO'
p4257
I2247
sS'531638'
p4258
I3815
sS'TOKYOPLAST'
p4259
I3996
sS'531635'
p4260
I3578
sS'532618'
p4261
I4257
sS'531633'
p4262
I2179
sS'504269'
p4263
I2028
sS'500890'
p4264
I2432
sS'BANKRAJAS'
p4265
I422
sS'532989'
p4266
I384
sS'532988'
p4267
I3110
sS'532985'
p4268
I2085
sS'532984'
p4269
I1060
sS'532987'
p4270
I3109
sS'532986'
p4271
I2636
sS'532981'
p4272
I214
sS'532980'
p4273
I1320
sS'532983'
p4274
I3241
sS'524564'
p4275
I1256
sS'531988'
p4276
I1832
sS'531989'
p4277
I886
sS'531980'
p4278
I3438
sS'531982'
p4279
I3666
sS'KALECONSUL'
p4280
I-1
sS'502157'
p4281
I2303
sS'507652'
p4282
I2551
sS'502150'
p4283
I1958
sS'522215'
p4284
I3852
sS'NBVENTURES'
p4285
I2570
sS'522217'
p4286
I1387
sS'522219'
p4287
I1570
sS'521005'
p4288
I2983
sS'521003'
p4289
I3498
sS'503796'
p4290
I942
sS'ESSARPORTS'
p4291
I1082
sS'THOMASCOTT'
p4292
I3871
sS'PERMAGNET'
p4293
I2861
sS'530859'
p4294
I809
sS'530589'
p4295
I2969
sS'530855'
p4296
I1260
sS'530585'
p4297
I3851
sS'530583'
p4298
I4276
sS'530853'
p4299
I1539
sS'532400'
p4300
I2093
sS'524748'
p4301
I2181
sS'524742'
p4302
I656
sS'524743'
p4303
I1164
sS'533177'
p4304
I1619
sS'533176'
p4305
I963
sS'533172'
p4306
I3177
sS'533171'
p4307
I4105
sS'533170'
p4308
I3888
sS'INDIANACRY'
p4309
I1657
sS'GANESHHOUC'
p4310
I1239
sS'533179'
p4311
I2862
sS'533178'
p4312
I2933
sS'BUTTERFLY'
p4313
I1235
sS'NEOCORP'
p4314
I2591
sS'PHOENXINTL'
p4315
I2876
sS'GKWLIMITED'
p4316
I1291
sS'BAJFINANCE'
p4317
I393
sS'SKIL'
p4318
I3296
sS'SHAWGELTIN'
p4319
I3305
sS'SIGROUPIND'
p4320
I3564
sS'IFGLREFRAC'
p4321
I1608
sS'509220'
p4322
I2999
sS'523164'
p4323
I3597
sS'511149'
p4324
I3183
sS'523160'
p4325
I2457
sS'DENABANK'
p4326
I900
sS'511147'
p4327
I4302
sS'511144'
p4328
I3409
sS'532873'
p4329
I1560
sS'517433'
p4330
I1724
sS'505650'
p4331
I3613
sS'INDNIPPON'
p4332
I1646
sS'SHIVTEX'
p4333
I3499
sS'526315'
p4334
I952
sS'SUNDRMBRAK'
p4335
I3781
sS'VHL'
p4336
I4184
sS'EUROTEXIND'
p4337
I1093
sS'523576'
p4338
I1166
sS'523574'
p4339
I2802
sS'500550'
p4340
I3572
sS'MUKANDLTD'
p4341
I2483
sS'GREENPLY'
p4342
I1365
sS'506222'
p4343
I3272
sS'514394'
p4344
I1261
sS'INSILCO'
p4345
I1730
sS'EIHOTEL'
p4346
I1011
sS'IBULHSGFIN'
p4347
I1577
sS'SHIRPUR-G'
p4348
I3493
sS'531300'
p4349
I167
sS'SURANACORP'
p4350
I3816
sS'523820'
p4351
I2591
sS'532740'
p4352
I2197
sS'RAVALSUGAR'
p4353
I3137
sS'IBREALEST'
p4354
I1653
sS'NIVINFRA'
p4355
I3839
sS'RAMAVISION'
p4356
I3098
sS'513709'
p4357
I3488
sS'526871'
p4358
I1732
sS'526873'
p4359
I3070
sS'513703'
p4360
I2113
sS'538057'
p4361
I631
sS'526879'
p4362
I4137
sS'SMOBILITY'
p4363
I-1
sS'530079'
p4364
I1131
sS'530077'
p4365
I1188
sS'523792'
p4366
I2354
sS'530075'
p4367
I3435
sS'530073'
p4368
I3366
sS'ABIRLANUVO'
p4369
I67
sS'530071'
p4370
I2828
sS'523790'
p4371
I3558
sS'ZENITHBIR'
p4372
I4383
sS'SGJHL'
p4373
I3512
sS'522029'
p4374
I4337
sS'FVIL'
p4375
I-1
sS'PGIL'
p4376
I2760
sS'KOLTEPATIL'
p4377
I2074
sS'532373'
p4378
I872
sS'526917'
p4379
I711
sS'NORTHGATE'
p4380
I-1
sS'532375'
p4381
I3978
sS'511447'
p4382
I3855
sS'511441'
p4383
I1395
sS'530469'
p4384
I1378
sS'530464'
p4385
I-1
sS'530466'
p4386
I-1
sS'530461'
p4387
I3318
sS'NIRLON'
p4388
I2638
sS'TTKPRESTIG'
p4389
I4047
sS'519421'
p4390
I2108
sS'RANKLIN'
p4391
I3115
sS'HCIL'
p4392
I1500
sS'511626'
p4393
I3242
sS'VLSFINANCE'
p4394
I4273
sS'511628'
p4395
I593
sS'530839'
p4396
I759
sS'532537'
p4397
I2209
sS'532531'
p4398
I3746
sS'532532'
p4399
I1821
sS'523371'
p4400
I2347
sS'523373'
p4401
I2414
sS'532538'
p4402
I4082
sS'532539'
p4403
I2411
sS'531845'
p4404
I4383
sS'530525'
p4405
I3483
sS'531847'
p4406
I308
sS'531846'
p4407
I966
sS'531841'
p4408
I3755
sS'531840'
p4409
I1604
sS'531843'
p4410
I2508
sS'531842'
p4411
I2139
sS'NMDC'
p4412
I2652
sS'PKTEA'
p4413
I2860
sS'526269'
p4414
I827
sS'DCB'
p4415
I-1
sS'526263'
p4416
I2438
sS'524156'
p4417
I3926
sS'EDUCOMP'
p4418
I1007
sS'BAGWATIGAS'
p4419
I474
sS'TATAYODOGA'
p4420
I3920
sS'GUJSIDHCEM'
p4421
I-1
sS'500302'
p4422
I2892
sS'500303'
p4423
I67
sS'MIRZAINT'
p4424
I2419
sS'500301'
p4425
I2594
sS'500306'
p4426
I1885
sS'500307'
p4427
I2638
sS'500304'
p4428
I2624
sS'500305'
p4429
I1910
sS'500308'
p4430
I2639
sS'507514'
p4431
I3637
sS'507515'
p4432
I753
sS'HDIL'
p4433
I1560
sS'524689'
p4434
I2819
sS'RALLIS'
p4435
I3089
sS'524683'
p4436
I2387
sS'524687'
p4437
I430
sS'503162'
p4438
I3164
sS'503169'
p4439
I3251
sS'TAKSHEEL'
p4440
I3868
sS'GMDCLTD'
p4441
I1407
sS'505688'
p4442
I494
sS'OSWALSPG'
p4443
I2754
sS'SIRPAPER'
p4444
I3601
sS'PREMIERPOL'
p4445
I2959
sS'KBIL'
p4446
I2051
sS'RELNIFTY'
p4447
I3029
sS'KFA'
p4448
I2046
sS'530263'
p4449
I1298
sS'ABB'
p4450
I25
sS'530261'
p4451
I236
sS'530267'
p4452
I3317
sS'530265'
p4453
I3332
sS'530269'
p4454
I3432
sS'HGS'
p4455
I1513
sS'590098'
p4456
I3414
sS'RIIL'
p4457
I3166
sS'509055'
p4458
I4254
sS'509051'
p4459
I1664
sS'509053'
p4460
I416
sS'TFL '
p4461
I-1
sS'HIMATSEIDE'
p4462
I1504
sS'BLKASHYAP'
p4463
I545
sS'500093'
p4464
I830
sS'ASTRAMICRO'
p4465
I322
sS'513575'
p4466
I3733
sS'NBCC'
p4467
I2519
sS'513579'
p4468
I1179
sS'514258'
p4469
I1573
sS'SHUKRADIAM'
p4470
I3558
sS'WATERBASE'
p4471
I4307
sS'JPINFRATEC'
p4472
I1848
sS'534392'
p4473
I4151
sS'FEDERALBNK'
p4474
I1135
sS'512624'
p4475
I704
sS'500095'
p4476
I4354
sS'517471'
p4477
I2070
sS'522183'
p4478
I1787
sS'UNITEDTEA'
p4479
I4111
sS'WELENTRP'
p4480
I4293
sS'509449'
p4481
I475
sS'V2RETAIL'
p4482
I4259
sS'PFIZER'
p4483
I2865
sS'LYCOS'
p4484
I2150
sS'SHPRE'
p4485
I3522
sS'506197'
p4486
I548
sS'513397'
p4487
I4172
sS'506079'
p4488
I2146
sS'KPRMILL'
p4489
I2094
sS'531611'
p4490
I2992
sS'531612'
p4491
I2026
sS'531613'
p4492
I1288
sS'506076'
p4493
I1370
sS'531615'
p4494
I1071
sS'CUBEXTUB'
p4495
I834
sS'531617'
p4496
I2748
sS'JUPITER'
p4497
I1916
sS'502820'
p4498
I878
sS'ESSARSHPNG'
p4499
I990
sS'RELCONS'
p4500
I3038
sS'GAMMNINFRA'
p4501
I1233
sS'BANG'
p4502
I418
sS'SUPERHOUSE'
p4503
I3804
sS'502175'
p4504
I3402
sS'VAKRANGEE'
p4505
I4168
sS'ATULAUTO'
p4506
I330
sS'530871'
p4507
I712
sS'526075'
p4508
I3159
sS'526071'
p4509
I3436
sS'530879'
p4510
I508
sS'526073'
p4511
I1226
sS'AXISBANK'
p4512
I361
sS'RELDIVOPP'
p4513
I3028
sS'MORARJEE'
p4514
I2451
sS'BPCL'
p4515
I497
sS'GTNTEX'
p4516
I1383
sS'533110'
p4517
I3522
sS'526169'
p4518
I2493
sS'WHIRLPOOL'
p4519
I4330
sS'INDOWIND'
p4520
I1692
sS'WINDMACHIN'
p4521
I4337
sS'508961'
p4522
I3550
sS'PORRITSPEN'
p4523
I4277
sS'KTKBANK'
p4524
I1983
sS'ISIBARS'
p4525
I1648
sS'RANASUG'
p4526
I3106
sS'ASTRAZEN'
p4527
I324
sS'GSCLCEMENT'
p4528
I1417
sS'MATRIXLABS'
p4529
I2345
sS'VIMALOIL'
p4530
I4232
sS'531190'
p4531
I348
sS'511169'
p4532
I1502
sS'SUNDARMFIN'
p4533
I3783
sS'523144'
p4534
I2362
sS'DBCORP'
p4535
I856
sS'531055'
p4536
I1348
sS'GOACARBON'
p4537
I1309
sS'531051'
p4538
I4239
sS'PROZONECSC'
p4539
I2779
sS'532649'
p4540
I2582
sS'532646'
p4541
I4096
sS'532647'
p4542
I2991
sS'532644'
p4543
I1882
sS'532645'
p4544
I443
sS'532642'
p4545
I1876
sS'532643'
p4546
I3511
sS'532640'
p4547
I841
sS'532641'
p4548
I2549
sS'526953'
p4549
I4205
sS'ALLSEC'
p4550
I138
sS'ORIENTHOT'
p4551
I2737
sS'523558'
p4552
I2604
sS'523550'
p4553
I2105
sS'532398'
p4554
I4132
sS'532399'
p4555
I3169
sS'532390'
p4556
I3883
sS'532391'
p4557
I2718
sS'532392'
p4558
I823
sS'BERGEPAINT'
p4559
I461
sS'521248'
p4560
I2060
sS'532397'
p4561
I793
sS'506248'
p4562
I165
sS'KESORAMIND'
p4563
I2019
sS'521242'
p4564
I1968
sS'513142'
p4565
I1588
sS'526560'
p4566
I1055
sS'ERAINFRA'
p4567
I1072
sS'534567'
p4568
I4152
sS'TIMEXWATCH'
p4569
I3974
sS'KKCL'
p4570
I2021
sS'514116'
p4571
I1431
sS'513727'
p4572
I3114
sS'513721'
p4573
I2503
sS'513723'
p4574
I1501
sS'513729'
p4575
I249
sS'SUPREMETEX'
p4576
I3812
sS'526899'
p4577
I1503
sS'BIRLAMONEY'
p4578
I375
sS'526893'
p4579
I3697
sS'526891'
p4580
I2327
sS'530019'
p4581
I1914
sS'508989'
p4582
I2574
sS'MEDICAPS'
p4583
I2362
sS'508982'
p4584
I2183
sS'530017'
p4585
I3706
sS'AMARAJABAT'
p4586
I155
sS'BODHTREE'
p4587
I568
sS'ALFALAVAL'
p4588
I123
sS'533281'
p4589
I3930
sS'531449'
p4590
I1371
sS'GNFC'
p4591
I1409
sS'533282'
p4592
I1359
sS'533284'
p4593
I3039
sS'533287'
p4594
I4379
sS'533286'
p4595
I2437
sS'533289'
p4596
I2018
sS'CREATIVEYE'
p4597
I823
sS'SUVEN'
p4598
I3837
sS'AUTOLITIND'
p4599
I343
sS'KHAITANLTD'
p4600
I2029
sS'517399'
p4601
I4288
sS'ZODIACLOTH'
p4602
I4395
sS'517391'
p4603
I1231
sS'517393'
p4604
I4240
sS'CIGNITITEC'
p4605
I626
sS'517397'
p4606
I2789
sS'BALMLAWRIE'
p4607
I409
sS'KARURKCP'
p4608
I1986
sS'511421'
p4609
I1180
sS'532604'
p4610
I3338
sS'511427'
p4611
I329
sS'523411'
p4612
I2104
sS'532605'
p4613
I1853
sS'MTNL'
p4614
I2267
sS'532884'
p4615
I3150
sS'532885'
p4616
I681
sS'532886'
p4617
I3434
sS'532887'
p4618
I3765
sS'532880'
p4619
I2705
sS'532881'
p4620
I1790
sS'512453'
p4621
I3545
sS'532883'
p4622
I4401
sS'532888'
p4623
I300
sS'532889'
p4624
I2094
sS'ELNET'
p4625
I1033
sS'532609'
p4626
I501
sS'AREVAT&D;'
p4627
I-1
sS'513428'
p4628
I1687
sS'500250'
p4629
I2167
sS'NITESHEST'
p4630
I2643
sS'526799'
p4631
I4094
sS'SAPL'
p4632
I3646
sS'523315'
p4633
I3014
sS'511393'
p4634
I919
sS'511391'
p4635
I1747
sS'523319'
p4636
I409
sS'526795'
p4637
I2275
sS'526797'
p4638
I1365
sS'AUTORIDFIN'
p4639
I347
sS'PERSISTENT'
p4640
I2862
sS'531869'
p4641
I3319
sS'531867'
p4642
I4103
sS'531866'
p4643
I3753
sS'531865'
p4644
I4278
sS'531863'
p4645
I1263
sS'531862'
p4646
I492
sS'531861'
p4647
I1897
sS'502587'
p4648
I3097
sS'HINDEVELOP'
p4649
I1535
sS'502589'
p4650
I4181
sS'USHDEVINT'
p4651
I4135
sS'DLINKINDIA'
p4652
I859
sS'GAL'
p4653
I1435
sS'505800'
p4654
I3111
sS'RADAAN'
p4655
I3044
sS'JCT'
p4656
I1855
sS'500329'
p4657
I2855
sS'RESURGERE'
p4658
I-1
sS'500325'
p4659
I3167
sS'500327'
p4660
I2845
sS'505200'
p4661
I1008
sS'500322'
p4662
I2806
sS'500323'
p4663
I2818
sS'DEEPAKSPIN'
p4664
I893
sS'SIEMENS'
p4665
I3572
sS'526241'
p4666
I173
sS'521216'
p4667
I918
sS'526247'
p4668
I2957
sS'526530'
p4669
I3761
sS'526532'
p4670
I1086
sS'526538'
p4671
I2349
sS'500188'
p4672
I1534
sS'PIRPHYTO'
p4673
I2893
sS'500180'
p4674
I1477
sS'500182'
p4675
I1489
sS'500183'
p4676
I1499
sS'500184'
p4677
I1500
sS'500185'
p4678
I1519
sS'500186'
p4679
I1529
sS'500187'
p4680
I1567
sS'533704'
p4681
I990
sS'515099'
p4682
I2133
sS'515097'
p4683
I1262
sS'515093'
p4684
I2240
sS'HSIL'
p4685
I1567
sS'530249'
p4686
I594
sS'ARCHIES'
p4687
I234
sS'GRASIM'
p4688
I1354
sS'530245'
p4689
I271
sS'EIHAHOTELS'
p4690
I1010
sS'530243'
p4691
I2309
sS'BVCL'
p4692
I426
sS'532782'
p4693
I3836
sS'509079'
p4694
I1384
sS'509077'
p4695
I2776
sS'509073'
p4696
I1464
sS'519183'
p4697
I59
sS'JBCHEPHARM'
p4698
I1851
sS'ARIES'
p4699
I241
sS'504132'
p4700
I2861
sS'539287'
p4701
I2744
sS'501270'
p4702
I705
sS'531265'
p4703
I2988
sS'ESSDEE'
p4704
I1080
sS'KANELOIL'
p4705
I1969
sS'531261'
p4706
I2117
sS'531260'
p4707
I3415
sS'531262'
p4708
I3822
sS'531269'
p4709
I2065
sS'531268'
p4710
I379
sS'513558'
p4711
I3147
sS'532070'
p4712
I3803
sS'532072'
p4713
I1761
sS'514272'
p4714
I506
sS'532078'
p4715
I2442
sS'513554'
p4716
I3080
sS'512608'
p4717
I486
sS'512600'
p4718
I2239
sS'WILLAMAGOR'
p4719
I4335
sS'512604'
p4720
I1452
sS'RSSOFTWARE'
p4721
I3244
sS'520022'
p4722
I902
sS'504988'
p4723
I4313
sS'520026'
p4724
I1484
sS'511668'
p4725
I1122
sS'531672'
p4726
I1624
sS'531673'
p4727
I201
sS'531670'
p4728
I757
sS'531671'
p4729
I541
sS'531676'
p4730
I4165
sS'531674'
p4731
I1676
sS'531675'
p4732
I4031
sS'531678'
p4733
I181
sS'506059'
p4734
I3724
sS'OCL'
p4735
I2691
sS'OPTOCIRCUI'
p4736
I2718
sS'DYNATECH'
p4737
I847
sS'AGRODUTCH'
p4738
I86
sS'AMBASARABH'
p4739
I157
sS'KOTARISUG'
p4740
I2089
sS'CUB'
p4741
I752
sS'NAVINFLUOR'
p4742
I2572
sS'513446'
p4743
I2443
sS'514484'
p4744
I3956
sS'TANTIACONS'
p4745
I3897
sS'530811'
p4746
I2602
sS'530813'
p4747
I2095
sS'530815'
p4748
I3151
sS'CIPLA'
p4749
I746
sS'514336'
p4750
I1154
sS'THIRUSUGAR'
p4751
I3963
sS'512535'
p4752
I274
sS'SADBHAV'
p4753
I3320
sS'SANDESH'
p4754
I3357
sS'514332'
p4755
I215
sS'ADANIENT'
p4756
I54
sS'533138'
p4757
I320
sS'533137'
p4758
I899
sS'CASTROLIND'
p4759
I664
sS'519216'
p4760
I100
sS'WELPROJ'
p4761
I-1
sS'519210'
p4762
I1725
sS'ASIANTILES'
p4763
I300
sS'504614'
p4764
I3384
sS'504340'
p4765
I788
sS'504341'
p4766
I3140
sS'504345'
p4767
I3344
sS'UNIONBANK'
p4768
I4093
sS'511187'
p4769
I2265
sS'511185'
p4770
I3829
sS'523120'
p4771
I71
sS'519373'
p4772
I4232
sS'GEECEE'
p4773
I1265
sS'SHETRON'
p4774
I3486
sS'MUKTAARTS'
p4775
I2488
sS'MINDAIND'
p4776
I2411
sS'APLAB'
p4777
I219
sS'532668'
p4778
I335
sS'532669'
p4779
I3652
sS'532660'
p4780
I4270
sS'532661'
p4781
I3112
sS'532662'
p4782
I1568
sS'532663'
p4783
I3396
sS'532664'
p4784
I154
sS'532665'
p4785
I3088
sS'532666'
p4786
I1132
sS'532667'
p4787
I3838
sS'EVERONN'
p4788
I1100
sS'531382'
p4789
I1845
sS'531380'
p4790
I680
sS'531381'
p4791
I244
sS'531387'
p4792
I1463
sS'500045'
p4793
I447
sS'500510'
p4794
I2156
sS'500041'
p4795
I424
sS'STEELCOGUJ'
p4796
I3726
sS'500043'
p4797
I433
sS'AUSTRAL'
p4798
I341
sS'500049'
p4799
I491
sS'500048'
p4800
I449
sS'ORISSAMINE'
p4801
I2742
sS'524470'
p4802
I3857
sS'NATCOPHARM'
p4803
I2554
sS'TTL'
p4804
I4045
sS'DBREALTY'
p4805
I857
sS'PANTALOONR'
p4806
I-1
sS'513121'
p4807
I2727
sS'506919'
p4808
I2289
sS'513127'
p4809
I3518
sS'MAARSOFTW'
p4810
I2235
sS'506261'
p4811
I2434
sS'506260'
p4812
I211
sS'506910'
p4813
I1850
sS'NGCT'
p4814
I2525
sS'UNIPLY'
p4815
I4096
sS'530389'
p4816
I1266
sS'COROMANDEL'
p4817
I806
sS'530381'
p4818
I2863
sS'BEARDSELL'
p4819
I440
sS'CALSOFT'
p4820
I642
sS'514138'
p4821
I3831
sS'ACROPETAL'
p4822
I48
sS'530033'
p4823
I2449
sS'530037'
p4824
I3681
sS'530035'
p4825
I3376
sS'524000'
p4826
I2255
sS'ARSHIYA'
p4827
I256
sS'530039'
p4828
I2199
sS'CELESTIAL'
p4829
I678
sS'SPARC'
p4830
I3776
sS'GRABALALK'
p4831
I1350
sS'530909'
p4832
I1074
sS'512297'
p4833
I4328
sS'512296'
p4834
I481
sS'512299'
p4835
I3729
sS'509874'
p4836
I3461
sS'509870'
p4837
I3453
sS'MATHPLATT'
p4838
I2473
sS'BIRLAERIC'
p4839
I534
sS'MANJUSHREE'
p4840
I2312
sS'530677'
p4841
I3808
sS'511401'
p4842
I2500
sS'517119'
p4843
I2844
sS'532869'
p4844
I3874
sS'532866'
p4845
I3026
sS'532867'
p4846
I4259
sS'532864'
p4847
I2589
sS'532865'
p4848
I2374
sS'532862'
p4849
I1596
sS'532863'
p4850
I3670
sS'532860'
p4851
I2598
sS'532861'
p4852
I1597
sS'INDOCO'
p4853
I1688
sS'MAHSEAMLES'
p4854
I2274
sS'523333'
p4855
I2908
sS'SAURASHCEM'
p4856
I3402
sS'JAYDYSTUF'
p4857
I1850
sS'530005'
p4858
I1639
sS'AMARJOTHI'
p4859
I156
sS'500710'
p4860
I112
sS'HIRAFERRO'
p4861
I1541
sS'531800'
p4862
I3482
sS'531802'
p4863
I2962
sS'3IINFOTECH'
p4864
I4403
sS'M50'
p4865
I2462
sS'MAJESAUTO'
p4866
I2287
sS'532149'
p4867
I420
sS'CAREERP'
p4868
I661
sS'GODFRYPHLP'
p4869
I1312
sS'TITAGRSTEL'
p4870
I3985
sS'961685'
p4871
I1175
sS'521184'
p4872
I2952
sS'503349'
p4873
I4214
sS'521180'
p4874
I3800
sS'TATACOFFEE'
p4875
I3905
sS'505827'
p4876
I3621
sS'KJMCFIN'
p4877
I2062
sS'521188'
p4878
I4114
sS'HIRECT'
p4879
I1508
sS'533499'
p4880
I502
sS'CHI'
p4881
I723
sS'ZENITHINFO'
p4882
I4388
sS'524648'
p4883
I1674
sS'507880'
p4884
I4243
sS'524640'
p4885
I3542
sS'507886'
p4886
I932
sS'524642'
p4887
I1369
sS'533095'
p4888
I458
sS'533096'
p4889
I55
sS'533090'
p4890
I1105
sS'533093'
p4891
I3064
sS'533098'
p4892
I2617
sS'526519'
p4893
I146
sS'521238'
p4894
I3440
sS'521236'
p4895
I3691
sS'521234'
p4896
I3694
sS'521232'
p4897
I3791
sS'SURANAIND'
p4898
I3817
sS'526510'
p4899
I3456
sS'504288'
p4900
I2907
sS'504286'
p4901
I896
sS'ABGSHIP'
p4902
I33
sS'AFL'
p4903
I40
sS'NAHARSPING'
p4904
I2544
sS'ANSALAPI'
p4905
I209
sS'509011'
p4906
I2186
sS'509015'
p4907
I3955
sS'RELCAPITAL'
p4908
I3163
sS'ASTEC'
p4909
I320
sS'ARCOTECH'
p4910
I235
sS'JISLJALEQS'
p4911
I1815
sS'ISMTLTD'
p4912
I1781
sS'517356'
p4913
I46
sS'523696'
p4914
I2291
sS'531249'
p4915
I4315
sS'523694'
p4916
I217
sS'531247'
p4917
I144
sS'531246'
p4918
I2968
sS'VADILALIND'
p4919
I4164
sS'531241'
p4920
I2178
sS'531240'
p4921
I3467
sS'532057'
p4922
I34
sS'532056'
p4923
I63
sS'532055'
p4924
I3123
sS'532054'
p4925
I2001
sS'532053'
p4926
I4303
sS'532051'
p4927
I3264
sS'512626'
p4928
I2721
sS'520008'
p4929
I3199
sS'520003'
p4930
I4290
sS'NECLIFE'
p4931
I2582
sS'FOURSOFT'
p4932
I-1
sS'VISHNU'
p4933
I4260
sS'500162'
p4934
I2825
sS'531658'
p4935
I4034
sS'531659'
p4936
I4044
sS'500163'
p4937
I1312
sS'531650'
p4938
I4192
sS'531651'
p4939
I2559
sS'531652'
p4940
I3962
sS'COMPUTECH'
p4941
I783
sS'FUTUREVENT'
p4942
I-1
sS'FTCSF5YDIV'
p4943
I1197
sS'KRISHNAENG'
p4944
I2098
sS'SUJANATWR'
p4945
I3765
sS'500696'
p4946
I1533
sS'508869'
p4947
I222
sS'508867'
p4948
I2587
sS'590073'
p4949
I4329
sS'508860'
p4950
I937
sS'590072'
p4951
I3781
sS'502281'
p4952
I4043
sS'POLYCHEM'
p4953
I2913
sS'GENUSPAPER'
p4954
I1207
sS'NAKODATEX'
p4955
I-1
sS'511760'
p4956
I2079
sS'512087'
p4957
I2821
sS'517564'
p4958
I1349
sS'517565'
p4959
I278
sS'517562'
p4960
I4033
sS'530833'
p4961
I31
sS'530521'
p4962
I4249
sS'530835'
p4963
I1036
sS'517569'
p4964
I2007
sS'GALLANTT'
p4965
I1230
sS'511218'
p4966
I3554
sS'511210'
p4967
I432
sS'519230'
p4968
I3198
sS'519234'
p4969
I3805
sS'519238'
p4970
I3379
sS'MARUTI'
p4971
I2335
sS'502137'
p4972
I883
sS'PAGEIND'
p4973
I2786
sS'VENKEYS'
p4974
I4202
sS'503663'
p4975
I3969
sS'504369'
p4976
I1351
sS'526161'
p4977
I3668
sS'503669'
p4978
I2111
sS'ISFT'
p4979
I1763
sS'504367'
p4980
I2445
sS'504360'
p4981
I3182
sS'503881'
p4982
I1509
sS'509243'
p4983
I4064
sS'LOTUSEYE'
p4984
I2203
sS'523100'
p4985
I811
sS'523105'
p4986
I2899
sS'AMAR'
p4987
I154
sS'TNPL'
p4988
I3889
sS'532842'
p4989
I3683
sS'519359'
p4990
I2924
sS'517172'
p4991
I3713
sS'532845'
p4992
I3876
sS'531013'
p4993
I3775
sS'NFL'
p4994
I2558
sS'531016'
p4995
I-1
sS'531017'
p4996
I246
sS'531015'
p4997
I4369
sS'DPTL'
p4998
I-1
sS'500280'
p4999
I687
sS'532606'
p5000
I2817
sS'532607'
p5001
I2716
sS'500285'
p5002
I3672
sS'500284'
p5003
I2234
sS'532608'
p5004
I884
sS'500288'
p5005
I2453
sS'507944'
p5006
I398
sS'507946'
p5007
I2037
sS'507942'
p5008
I4157
sS'SEZAL'
p5009
I3449
sS'507948'
p5010
I2022
sS'DHARAMORAR'
p5011
I926
sS'PALRED'
p5012
I2772
sS'500069'
p5013
I564
sS'500068'
p5014
I1216
sS'500067'
p5015
I559
sS'500063'
p5016
I2750
sS'505010'
p5017
I345
sS'500060'
p5018
I534
sS'524458'
p5019
I3204
sS'ASIANPAINT'
p5020
I306
sS'TATASPONGE'
p5021
I3915
sS'SALSTEEL'
p5022
I3338
sS'FIRSTWIN'
p5023
I1162
sS'514482'
p5024
I272
sS'513108'
p5025
I1234
sS'514486'
p5026
I2915
sS'513456'
p5027
I1971
sS'513452'
p5028
I1016
sS'514330'
p5029
I2757
sS'508670'
p5030
I2583
sS'532732'
p5031
I2021
sS'REVATHI'
p5032
I3191
sS'BECREL'
p5033
I465
sS'519152'
p5034
I4163
sS'523832'
p5035
I2484
sS'533519'
p5036
I2132
sS'NICCO'
p5037
I2618
sS'514152'
p5038
I3465
sS'532735'
p5039
I3040
sS'531314'
p5040
I1733
sS'523523'
p5041
I3061
sS'AURIONPRO'
p5042
I335
sS'SHOPERSTOP'
p5043
I3504
sS'SUPERSPIN'
p5044
I3800
sS'VINDHYATEL'
p5045
I4237
sS'501622'
p5046
I152
sS'SAKUMA'
p5047
I3337
sS'HINDIND'
p5048
I1507
sS'SHRINATRAJ'
p5049
I3285
sS'506938'
p5050
I1978
sS'512279'
p5051
I4265
sS'517354'
p5052
I1467
sS'SWARAJENG'
p5053
I3847
sS'512271'
p5054
I3902
sS'512273'
p5055
I250
sS'REDINGTON '
p5056
I-1
sS'RAYMOND'
p5057
I3142
sS'523483'
p5058
I2782
sS'SHYAMTEL'
p5059
I3562
sS'BODALCHEM'
p5060
I567
sS'523489'
p5061
I718
sS'PLASTIBLEN'
p5062
I2900
sS'KIRIINDUS'
p5063
I2050
sS'532848'
p5064
I895
sS'532849'
p5065
I522
sS'GULFPETRO'
p5066
I3325
sS'532840'
p5067
I76
sS'532841'
p5068
I3329
sS'512413'
p5069
I3664
sS'532843'
p5070
I1174
sS'517174'
p5071
I1553
sS'512417'
p5072
I3477
sS'532847'
p5073
I1497
sS'IOC'
p5074
I1667
sS'IOB'
p5075
I1668
sS'ALBK'
p5076
I133
sS'531820'
p5077
I1150
sS'531823'
p5078
I270
sS'531822'
p5079
I4256
sS'531821'
p5080
I2499
sS'KANORICHEM'
p5081
I1972
sS'531826'
p5082
I889
sS'531825'
p5083
I3144
sS'PRESSMN'
p5084
I2776
sS'516082'
p5085
I2666
sS'BANKINDIA'
p5086
I420
sS'516086'
p5087
I3524
sS'VXLINSTR'
p5088
I4288
sS'ASIANHOTNR'
p5089
I303
sS'SMPL'
p5090
I3764
sS'507717'
p5091
I923
sS'SCI'
p5092
I3492
sS'522199'
p5093
I2447
sS'522195'
p5094
I1191
sS'511682'
p5095
I1609
sS'LCCINFOTEC'
p5096
I2161
sS'530991'
p5097
I3225
sS'530993'
p5098
I3392
sS'526755'
p5099
I4200
sS'511688'
p5100
I2344
sS'ALPSINDUS'
p5101
I147
sS'526751'
p5102
I1356
sS'530999'
p5103
I403
sS'526753'
p5104
I3231
sS'524667'
p5105
I3407
sS'524663'
p5106
I496
sS'524661'
p5107
I4314
sS'524669'
p5108
I1490
sS'JBFIND'
p5109
I1852
sS'GLENMARK'
p5110
I1295
sS'526285'
p5111
I951
sS'533078'
p5112
I2311
sS'OBEROIRLTY'
p5113
I2688
sS'526570'
p5114
I2660
sS'526574'
p5115
I1063
sS'526576'
p5116
I3872
sS'524590'
p5117
I945
sS'524592'
p5118
I1856
sS'524594'
p5119
I288
sS'524598'
p5120
I111
sS'500405'
p5121
I3811
sS'500407'
p5122
I3847
sS'NOVAIRNSTL'
p5123
I-1
sS'511024'
p5124
I3756
sS'500400'
p5125
I3914
sS'505712'
p5126
I1388
sS'505710'
p5127
I1357
sS'505711'
p5128
I1223
sS'505714'
p5129
I1218
sS'505690'
p5130
I587
sS'GOKUL'
p5131
I1320
sS'MERCK'
p5132
I2383
sS'504000'
p5133
I1034
sS'509038'
p5134
I4279
sS'504008'
p5135
I1041
sS'ADI'
p5136
I1550
sS'523716'
p5137
I280
sS'523712'
p5138
I1893
sS'523710'
p5139
I3410
sS'GSFC'
p5140
I1418
sS'MANGCHEFER'
p5141
I2307
sS'515147'
p5142
I1445
sS'515145'
p5143
I1536
sS'SHIV-VANI'
p5144
I3494
sS'TIMKEN'
p5145
I3975
sS'531228'
p5146
I3108
sS'500495'
p5147
I1078
sS'500493'
p5148
I493
sS'500490'
p5149
I397
sS'531221'
p5150
I2351
sS'531223'
p5151
I200
sS'523676'
p5152
I1333
sS'531225'
p5153
I1189
sS'523670'
p5154
I2655
sS'531227'
p5155
I887
sS'523672'
p5156
I1167
sS'532039'
p5157
I4389
sS'532038'
p5158
I1046
sS'BAJAJ-AUTO'
p5159
I390
sS'532033'
p5160
I1817
sS'532035'
p5161
I4101
sS'532034'
p5162
I2822
sS'PRAJIND'
p5163
I2935
sS'CRMFGETF'
p5164
I622
sS'509887'
p5165
I3595
sS'506894'
p5166
I715
sS'ESL'
p5167
I1024
sS'506543'
p5168
I2470
sS'506540'
p5169
I2118
sS'500720'
p5170
I1589
sS'JINDALPHOT'
p5171
I1873
sS'HOTLINGLAS'
p5172
I1557
sS'506093'
p5173
I438
sS'PROZONE'
p5174
I-1
sS'506767'
p5175
I132
sS'530177'
p5176
I3677
sS'530175'
p5177
I2696
sS'530173'
p5178
I2745
sS'530171'
p5179
I874
sS'530997'
p5180
I4098
sS'DOLPHINOFF'
p5181
I959
sS'512640'
p5182
I3741
sS'512642'
p5183
I262
sS'WESTINDSEC'
p5184
I4345
sS'SHAMKNFAB'
p5185
I3465
sS'TARAJEWELS'
p5186
I3875
sS'505840'
p5187
I1820
sS'522298'
p5188
I2392
sS'522294'
p5189
I3878
sS'522295'
p5190
I797
sS'522296'
p5191
I3702
sS'522292'
p5192
I702
sS'530505'
p5193
I4129
sS'521080'
p5194
I2831
sS'521082'
p5195
I3669
sS'517544'
p5196
I685
sS'517546'
p5197
I124
sS'517548'
p5198
I3712
sS'ADORWELD'
p5199
I72
sS'MADSUDIND'
p5200
I2244
sS'503673'
p5201
I763
sS'DYNAMATECH'
p5202
I982
sS'TATAGLOBAL'
p5203
I3909
sS'SIYSIL'
p5204
I3604
sS'APOLSINHOT'
p5205
I13
sS'RSYSTEMS'
p5206
I3040
sS'INDIANB '
p5207
I-1
sS'526141'
p5208
I778
sS'526143'
p5209
I2408
sS'SSLT'
p5210
I-1
sS'512375'
p5211
I1996
sS'519331'
p5212
I4225
sS'BFINVEST'
p5213
I470
sS'531035'
p5214
I3992
sS'531033'
p5215
I3152
sS'SANGHVIMOV'
p5216
I3366
sS'500268'
p5217
I2299
sS'NATPEROXID'
p5218
I2561
sS'GUJSTATFIN'
p5219
I1419
sS'500265'
p5220
I2274
sS'500264'
p5221
I2251
sS'500267'
p5222
I2287
sS'532627'
p5223
I1822
sS'500260'
p5224
I3030
sS'532622'
p5225
I1254
sS'532623'
p5226
I2667
sS'507968'
p5227
I1900
sS'507966'
p5228
I3121
sS'533079'
p5229
I3356
sS'507962'
p5230
I3073
sS'507960'
p5231
I1399
sS'TEXRAIL'
p5232
I3949
sS'MHRIL'
p5233
I2283
sS'505036'
p5234
I344
sS'500009'
p5235
I157
sS'500008'
p5236
I155
sS'CAROLINFO'
p5237
I663
sS'505520'
p5238
I1485
sS'500003'
p5239
I79
sS'500002'
p5240
I25
sS'505525'
p5241
I2820
sS'505526'
p5242
I956
sS'ORIENTPPR'
p5243
I2733
sS'PORWAL'
p5244
I-1
sS'524434'
p5245
I307
sS'^DJI'
p5246
I961
sS'514312'
p5247
I1814
sS'514316'
p5248
I3052
sS'530347'
p5249
I2259
sS'530341'
p5250
I2485
sS'530343'
p5251
I1274
sS'CORALFINAC'
p5252
I799
sS'HILTON'
p5253
I1497
sS'501351'
p5254
I3118
sS'IMPAL'
p5255
I1645
sS'512257'
p5256
I3849
sS'517374'
p5257
I2487
sS'512253'
p5258
I526
sS'517372'
p5259
I1402
sS'DONEAR'
p5260
I960
sS'STEELTUBES'
p5261
I3724
sS'509839'
p5262
I3012
sS'509525'
p5263
I1049
sS'504807'
p5264
I-1
sS'509835'
p5265
I2960
sS'514175'
p5266
I4186
sS'514177'
p5267
I3206
sS'514171'
p5268
I676
sS'SIDDHATUBE'
p5269
I3569
sS'VEDL'
p5270
I3445
sS'SURYAJYOTI'
p5271
I3828
sS'532614'
p5272
I1621
sS'532822'
p5273
I1602
sS'DUNCANSIND'
p5274
I-1
sS'532820'
p5275
I2481
sS'532821'
p5276
I1698
sS'512437'
p5277
I221
sS'532827'
p5278
I2786
sS'532824'
p5279
I4286
sS'532825'
p5280
I1804
sS'532828'
p5281
I163
sS'532616'
p5282
I4356
sS'JETAIRWAYS'
p5283
I1859
sS'531592'
p5284
I61
sS'BAYERCROP'
p5285
I435
sS'531590'
p5286
I520
sS'531597'
p5287
I2401
sS'506373'
p5288
I750
sS'531594'
p5289
I1628
sS'531599'
p5290
I1133
sS'531598'
p5291
I3560
sS'CINEVISTA'
p5292
I745
sS'ALFREDHERB'
p5293
I126
sS'MANUGRAPH'
p5294
I2317
sS'HITECHGEAR'
p5295
I1493
sS'BIOCON'
p5296
I528
sS'ONWARDTEC'
p5297
I2717
sS'507779'
p5298
I1973
sS'526775'
p5299
I4170
sS'533336'
p5300
I934
sS'526773'
p5301
I2963
sS'533330'
p5302
I48
sS'533333'
p5303
I1155
sS'533332'
p5304
I3759
sS'LINCPEN'
p5305
I2178
sS'DCMSRMIND'
p5306
I880
sS'530979'
p5307
I2313
sS'530977'
p5308
I1990
sS'530973'
p5309
I122
sS'TORNTPOWER'
p5310
I4001
sS'530971'
p5311
I2634
sS'PRECOT'
p5312
I2952
sS'524602'
p5313
I3497
sS'507598'
p5314
I2067
sS'524606'
p5315
I463
sS'524608'
p5316
I1137
sS'SKFINDIA'
p5317
I3607
sS'JPPOWER'
p5318
I1822
sS'533059'
p5319
I590
sS'526550'
p5320
I814
sS'526556'
p5321
I354
sS'526554'
p5322
I3339
sS'526558'
p5323
I1828
sS'533055'
p5324
I1006
sS'533056'
p5325
I3389
sS'INFY'
p5326
I1711
sS'AMBUJACEM'
p5327
I161
sS'TIIL'
p5328
I3933
sS'SHILPI'
p5329
I3490
sS'JMCPROJECT'
p5330
I1890
sS'503297'
p5331
I3801
sS'APLAPOLLO'
p5332
I12
sS'511000'
p5333
I2245
sS'TATIASKYLN'
p5334
I3877
sS'505737'
p5335
I1755
sS'KARMAENG'
p5336
I1981
sS'IBSEC'
p5337
I-1
sS'MLL'
p5338
I-1
sS'504028'
p5339
I1264
sS'523732'
p5340
I4294
sS'523736'
p5341
I935
sS'NRC'
p5342
I2669
sS'ORIENTBANK'
p5343
I2735
sS'BALLARPUR'
p5344
I408
sS'531203'
p5345
I3328
sS'531201'
p5346
I3487
sS'531207'
p5347
I3141
sS'531206'
p5348
I2121
sS'531205'
p5349
I1975
sS'505533'
p5350
I922
sS'531209'
p5351
I2675
sS'505530'
p5352
I2977
sS'523658'
p5353
I3211
sS'505190'
p5354
I2044
sS'505192'
p5355
I3618
sS'532010'
p5356
I2601
sS'532016'
p5357
I4131
sS'532015'
p5358
I1360
sS'BANARBEADS'
p5359
I415
sS'NOIDATOLL'
p5360
I2656
sS'532019'
p5361
I2161
sS'ABBOTINDIA'
p5362
I26
sS'KSERASERA'
p5363
I1934
sS'TELEDATAGL'
p5364
I3938
sS'SONASTEER'
p5365
I3642
sS'FEDDERLOYD'
p5366
I1134
sS'DECCANCE'
p5367
I883
sS'501295'
p5368
I1702
sS'PONNIERODE'
p5369
I2923
sS'501298'
p5370
I1701
sS'512036'
p5371
I1977
sS'513648'
p5372
I2323
sS'CANFINHOME'
p5373
I651
sS'513642'
p5374
I360
sS'530151'
p5375
I4223
sS'530155'
p5376
I3997
sS'524388'
p5377
I822
sS'TULSI'
p5378
I4053
sS'534312'
p5379
I2224
sS'ONGC'
p5380
I2697
sS'VIKASGLOB'
p5381
I4228
sS'509992'
p5382
I4075
sS'HYDRBADIND'
p5383
I-1
sS'522237'
p5384
I3500
sS'530561'
p5385
I3232
sS'530565'
p5386
I3299
sS'517522'
p5387
I3086
sS'502241'
p5388
I1592
sS'SHASUNPHAR'
p5389
I3479
sS'512405'
p5390
I1591
sS'STERTOOLS'
p5391
I3734
sS'514492'
p5392
I2306
sS'519273'
p5393
I4126
sS'519279'
p5394
I2243
sS'VBDESAIFIN'
p5395
I4159
sS'NARMADASUG'
p5396
I2530
sS'531784'
p5397
I1939
sS'531783'
p5398
I1520
sS'531780'
p5399
I1944
sS'531781'
p5400
I3827
sS'JAIHINDPRO'
p5401
I1813
sS'PASUPATSPG'
p5402
I2835
sS'BGLOBAL'
p5403
I502
sS'526125'
p5404
I245
sS'519319'
p5405
I3680
sS'REISIXTEN'
p5406
I3158
sS'530357'
p5407
I1998
sS'DEEPIND'
p5408
I890
sS'EXCELINFO'
p5409
I-1
sS'KALINDEE'
p5410
I1950
sS'524768'
p5411
I1045
sS'ARENTERP'
p5412
I3074
sS'500247'
p5413
I2081
sS'500246'
p5414
I1931
sS'500245'
p5415
I2054
sS'500243'
p5416
I2056
sS'FKONCO'
p5417
I1187
sS'500240'
p5418
I2043
sS'IBIPL'
p5419
I1578
sS'500249'
p5420
I2107
sS'500248'
p5421
I2100
sS'BAJAJFINSV'
p5422
I394
sS'CHESLINTEX'
p5423
I720
sS'503624'
p5424
I3841
sS'BANCOINDIA'
p5425
I417
sS'500023'
p5426
I303
sS'505502'
p5427
I2810
sS'500020'
p5428
I571
sS'500027'
p5429
I331
sS'505506'
p5430
I366
sS'500025'
p5431
I315
sS'500024'
p5432
I314
sS'505509'
p5433
I3188
sS'500028'
p5434
I332
sS'531224'
p5435
I783
sS'524410'
p5436
I3688
sS'524412'
p5437
I20
sS'VARDMNPOLY'
p5438
I4186
sS'GUJALKALI'
p5439
I1385
sS'RELIANCE'
p5440
I3167
sS'530367'
p5441
I2668
sS'530365'
p5442
I2730
sS'535789'
p5443
I1577
sS'530363'
p5444
I4080
sS'ANSALHSG'
p5445
I208
sS'530369'
p5446
I4178
sS'532031'
p5447
I3381
sS'IVRCLAH'
p5448
I1790
sS'SABERORGAN'
p5449
I3316
sS'TATAMOTORS'
p5450
I3912
sS'EXIDEIND'
p5451
I1108
sS'533553'
p5452
I3928
sS'533552'
p5453
I3257
sS'530091'
p5454
I4399
sS'530093'
p5455
I44
sS'530095'
p5456
I478
sS'501370'
p5457
I4300
sS'AGCNET'
p5458
I84
sS'501379'
p5459
I3480
sS'PARASPETRO'
p5460
I2815
sS'KAKATCEM'
p5461
I1946
sS'513412'
p5462
I119
sS'513414'
p5463
I3764
sS'513418'
p5464
I3491
sS'506975'
p5465
I3071
sS'512233'
p5466
I1846
sS'512237'
p5467
I1811
sS'TRF'
p5468
I4029
sS'504824'
p5469
I2270
sS'504823'
p5470
I2285
sS'531416'
p5471
I2550
sS'531417'
p5472
I2371
sS'531412'
p5473
I3053
sS'531413'
p5474
I2047
sS'531410'
p5475
I1397
sS'531411'
p5476
I4055
sS'531418'
p5477
I3863
sS'531419'
p5478
I1341
sS'532205'
p5479
I-1
sS'532200'
p5480
I3716
sS'514199'
p5481
I402
sS'514197'
p5482
I3307
sS'VARDHACRLC '
p5483
I-1
sS'532209'
p5484
I1829
sS'532808'
p5485
I2760
sS'532809'
p5486
I1163
sS'APTECHT'
p5487
I226
sS'UJAAS'
p5488
I4072
sS'519483'
p5489
I3881
sS'532805'
p5490
I3149
sS'532806'
p5491
I95
sS'532807'
p5492
I743
sS'532800'
p5493
I4060
sS'532801'
p5494
I645
sS'519485'
p5495
I304
sS'532803'
p5496
I2904
sS'531578'
p5497
I2068
sS'531574'
p5498
I4190
sS'506355'
p5499
I717
sS'531570'
p5500
I3556
sS'ORIENTBELL'
p5501
I2730
sS'FTCSF5YGRO'
p5502
I1186
sS'506074'
p5503
I256
sS'INDOZINC'
p5504
I1687
sS'MAWANASUG'
p5505
I2347
sS'NEOCURE'
p5506
I-1
sS'IBVENTURES'
p5507
I1654
sS'505523'
p5508
I2271
sS'500359'
p5509
I3107
sS'500358'
p5510
I3095
sS'INDIACEM'
p5511
I1639
sS'507759'
p5512
I2176
sS'FILATEX'
p5513
I1147
sS'LICNMFET'
p5514
I2129
sS'507753'
p5515
I3682
sS'500355'
p5516
I3089
sS'500354'
p5517
I3087
sS'961664'
p5518
I2049
sS'961665'
p5519
I2722
sS'TATACOMM'
p5520
I3906
sS'532177'
p5521
I4394
sS'526715'
p5522
I210
sS'526717'
p5523
I1340
sS'533317'
p5524
I2710
sS'533316'
p5525
I3439
sS'533315'
p5526
I1722
sS'505885'
p5527
I123
sS'533310'
p5528
I2403
sS'530959'
p5529
I940
sS'SGL'
p5530
I3740
sS'XPROINDIA'
p5531
I4359
sS'530951'
p5532
I3090
sS'530953'
p5533
I3789
sS'530955'
p5534
I1942
sS'524628'
p5535
I2823
sS'524622'
p5536
I2975
sS'PAREKHPLAT'
p5537
I2818
sS'524624'
p5538
I1220
sS'533033'
p5539
I3383
sS'BONGAIREFN'
p5540
I579
sS'PFC'
p5541
I2928
sS'SATHAISPAT'
p5542
I3399
sS'RASLAMIPAK'
p5543
I3120
sS'PFS'
p5544
I2997
sS'HERCULES'
p5545
I1487
sS'GSKCONS'
p5546
I1293
sS'LKPMERFIN'
p5547
I2187
sS'VGUARD'
p5548
I4160
sS'590027'
p5549
I1847
sS'590024'
p5550
I1140
sS'590025'
p5551
I1285
sS'590022'
p5552
I997
sS'590023'
p5553
I1030
sS'590020'
p5554
I3946
sS'590021'
p5555
I498
sS'590028'
p5556
I2618
sS'SKSMICRO'
p5557
I3611
sS'TALWALKARS'
p5558
I3887
sS'504227'
p5559
I4333
sS'504220'
p5560
I4353
sS'523283'
p5561
I3804
sS'523289'
p5562
I3098
sS'511064'
p5563
I3966
sS'511066'
p5564
I3335
sS'507446'
p5565
I3583
sS'500900'
p5566
I3735
sS'GATI'
p5567
I1255
sS'MCLEODRUSS'
p5568
I2358
sS'JEYPORE'
p5569
I1861
sS'532783'
p5570
I2206
sS'632480'
p5571
I134
sS'532781'
p5572
I551
sS'CAMBRIDGE'
p5573
I-1
sS'532787'
p5574
I1080
sS'532786'
p5575
I1362
sS'532785'
p5576
I3255
sS'532784'
p5577
I3623
sS'523752'
p5578
I1768
sS'532789'
p5579
I2641
sS'532788'
p5580
I4357
sS'523756'
p5581
I3685
sS'523754'
p5582
I1068
sS'GANDHITUBE'
p5583
I1234
sS'VIMTALABS'
p5584
I4233
sS'EMCO'
p5585
I1041
sS'CITURGIBIO'
p5586
I750
sS'523630'
p5587
I2558
sS'GEOMETRIC'
p5588
I1277
sS'523638'
p5589
I1772
sS'SEPOWER'
p5590
I3266
sS'HINDSPG'
p5591
I1511
sS'RELMEDIA'
p5592
I3169
sS'SREERAYALK'
p5593
I3682
sS'TIPSINDLTD'
p5594
I3978
sS'VARDHACRLC'
p5595
I4183
sS'513337'
p5596
I1423
sS'513335'
p5597
I94
sS'513333'
p5598
I514
sS'513629'
p5599
I4054
sS'504810'
p5600
I1710
sS'513627'
p5601
I2099
sS'530139'
p5602
I3918
sS'530133'
p5603
I162
sS'524364'
p5604
I3674
sS'530131'
p5605
I1887
sS'530135'
p5606
I106
sS'MMWL'
p5607
I2363
sS'PROZONINTU'
p5608
I2769
sS'504240'
p5609
I897
sS'SPIC'
p5610
I3654
sS'SHILPAMED'
p5611
I3489
sS'CCHHL'
p5612
I814
sS'IIFL'
p5613
I1643
sS'508807'
p5614
I1590
sS'512424'
p5615
I2479
sS'ORBITCORP'
p5616
I2720
sS'517146'
p5617
I4133
sS'517056'
p5618
I3240
sS'517506'
p5619
I4047
sS'517500'
p5620
I3235
sS'512573'
p5621
I352
sS'530543'
p5622
I2324
sS'517140'
p5623
I2459
sS'530547'
p5624
I2011
sS'530545'
p5625
I810
sS'512579'
p5626
I1410
sS'TV-18'
p5627
I3943
sS'532850'
p5628
I2391
sS'TRIVENSHET'
p5629
I4043
sS'PANASONIC'
p5630
I2795
sS'511276'
p5631
I2369
sS'511272'
p5632
I694
sS'519299'
p5633
I2971
sS'519295'
p5634
I413
sS'MBIND'
p5635
I-1
sS'532461'
p5636
I3010
sS'HANUNG'
p5637
I1450
sS'532466'
p5638
I2719
sS'505212'
p5639
I1819
sS'M&M;'
p5640
I2280
sS'LLOYDSTEEL'
p5641
I-1
sS'LYKALABS'
p5642
I2214
sS'502995'
p5643
I2294
sS'HDFCMFGETF'
p5644
I1478
sS'GULFOILLUB'
p5645
I1210
sS'NESCO'
p5646
I2595
sS'500223'
p5647
I1855
sS'500222'
p5648
I1854
sS'500227'
p5649
I1874
sS'500226'
p5650
I790
sS'500228'
p5651
I1911
sS'CANBK'
p5652
I653
sS'AGRITECH'
p5653
I9
sS'AGARIND'
p5654
I83
sS'521336'
p5655
I-1
sS'504697'
p5656
I1224
sS'LGBBROSLTD'
p5657
I2167
sS'CYBERMEDIA'
p5658
I841
sS'SUNCLAYTON'
p5659
I-1
sS'CRONIMET'
p5660
I-1
sS'505075'
p5661
I3448
sS'ALPHAGEO'
p5662
I145
sS'532219'
p5663
I1053
sS'GLAXO'
p5664
I1294
sS'ADSL'
p5665
I137
sS'GOLDSHARE'
p5666
I4140
sS'500575'
p5667
I4281
sS'ESCORTS'
p5668
I1078
sS'530307'
p5669
I698
sS'523519'
p5670
I4121
sS'530309'
p5671
I703
sS'BGRENERGY'
p5672
I473
sS'MENONBE'
p5673
I2380
sS'INFODRIVE'
p5674
I1706
sS'ARIHANT'
p5675
I244
sS'501179'
p5676
I2746
sS'500570'
p5677
I3912
sS'533573'
p5678
I121
sS'509152'
p5679
I1416
sS'533570'
p5680
I363
sS'533576'
p5681
I4147
sS'SOTL'
p5682
I3407
sS'TODAYS'
p5683
I3993
sS'ANTGRAPHIC'
p5684
I210
sS'501311'
p5685
I1841
sS'501314'
p5686
I1960
sS'ROSSELLIND'
p5687
I3233
sS'DAICHIKARK'
p5688
I863
sS'514358'
p5689
I1099
sS'514428'
p5690
I1515
sS'532191'
p5691
I3717
sS'AGSINFO'
p5692
I-1
sS'513436'
p5693
I3452
sS'513430'
p5694
I2830
sS'532199'
p5695
I2994
sS'533638'
p5696
I1119
sS'512219'
p5697
I1703
sS'533639'
p5698
I3868
sS'517330'
p5699
I762
sS'512217'
p5700
I4349
sS'VTL'
p5701
I4187
sS'512215'
p5702
I4282
sS'517334'
p5703
I2460
sS'504840'
p5704
I1943
sS'509563'
p5705
I1250
sS'509567'
p5706
I1309
sS'531431'
p5707
I3458
sS'531432'
p5708
I3865
sS'531433'
p5709
I3788
sS'531436'
p5710
I2246
sS'531437'
p5711
I2939
sS'531439'
p5712
I1331
sS'532221'
p5713
I3644
sS'531557'
p5714
I168
sS'531556'
p5715
I799
sS'531553'
p5716
I242
sS'531552'
p5717
I3051
sS'531551'
p5718
I1750
sS'531550'
p5719
I1863
sS'513295'
p5720
I3254
sS'PREMIER'
p5721
I2958
sS'ALPINEHOU'
p5722
I146
sS'531881'
p5723
I266
sS'RBN'
p5724
I3162
sS'531882'
p5725
I2122
sS'531887'
p5726
I3055
sS'531886'
p5727
I1816
sS'531889'
p5728
I1742
sS'531888'
p5729
I3192
sS'DALMIABEL'
p5730
I-1
sS'516064'
p5731
I252
sS'ARL'
p5732
I-1
sS'524194'
p5733
I3218
sS'517195'
p5734
I2725
sS'SUASHDIMON'
p5735
I3749
sS'DWARKESH'
p5736
I980
sS'DIVISLAB'
p5737
I950
sS'522134'
p5738
I263
sS'BSCFAUG08A'
p5739
I455
sS'526739'
p5740
I3305
sS'530931'
p5741
I3707
sS'521109'
p5742
I2540
sS'530937'
p5743
I4084
sS'530683'
p5744
I2894
sS'521105'
p5745
I2701
sS'526731'
p5746
I596
sS'526737'
p5747
I807
sS'530689'
p5748
I1364
sS'526735'
p5749
I92
sS'SUNCLAYLTD'
p5750
I3782
sS'INDSWFTLAB'
p5751
I1631
sS'526596'
p5752
I2170
sS'526594'
p5753
I377
sS'533018'
p5754
I3587
sS'533019'
p5755
I3588
sS'533014'
p5756
I3566
sS'NAVNETPUBL'
p5757
I-1
sS'533016'
p5758
I341
sS'533017'
p5759
I3190
sS'533010'
p5760
I2694
sS'533011'
p5761
I798
sS'533012'
p5762
I2155
sS'526598'
p5763
I1408
sS'511593'
p5764
I2171
sS'511597'
p5765
I2788
sS'590001'
p5766
I721
sS'590003'
p5767
I1987
sS'590004'
p5768
I2201
sS'590005'
p5769
I3967
sS'590006'
p5770
I177
sS'511734'
p5771
I2834
sS'511736'
p5772
I4135
sS'511730'
p5773
I4022
sS'GEORGFISCH'
p5774
I1216
sS'511738'
p5775
I2377
sS'PARSVNATH'
p5776
I2829
sS'532424'
p5777
I1313
sS'532425'
p5778
I1426
sS'VTMLTD'
p5779
I4285
sS'532096'
p5780
I2086
sS'INEABS'
p5781
I-1
sS'504067'
p5782
I4390
sS'509099'
p5783
I2751
sS'523770'
p5784
I1753
sS'GKB'
p5785
I1290
sS'TORNTPHARM'
p5786
I4000
sS'532768'
p5787
I1145
sS'532856'
p5788
I3972
sS'532765'
p5789
I4136
sS'532764'
p5790
I1265
sS'532767'
p5791
I1257
sS'532766'
p5792
I3197
sS'532761'
p5793
I1562
sS'532760'
p5794
I890
sS'519126'
p5795
I1525
sS'532762'
p5796
I51
sS'524794'
p5797
I2345
sS'JAMNAAUTO'
p5798
I1830
sS'523618'
p5799
I967
sS'PROVOGUE'
p5800
I-1
sS'512103'
p5801
I2621
sS'523610'
p5802
I1786
sS'PERCIMDIAM'
p5803
I-1
sS'512101'
p5804
I4036
sS'ASHIMASYN'
p5805
I283
sS'SOUTHBANK'
p5806
I3648
sS'SUMMIT'
p5807
I-1
sS'FTCPOF3YDV'
p5808
I1194
sS'THINKSOFT'
p5809
I-1
sS'WIPRO'
p5810
I4342
sS'506528'
p5811
I2008
sS'USHERAGRO'
p5812
I4136
sS'506525'
p5813
I1972
sS'506520'
p5814
I1849
sS'506522'
p5815
I1888
sS'517429'
p5816
I4272
sS'505336'
p5817
I2418
sS'500780'
p5818
I4398
sS'TECHNOELEC'
p5819
I3931
sS'524204'
p5820
I3937
sS'524200'
p5821
I4235
sS'524202'
p5822
I2136
sS'508571'
p5823
I768
sS'524208'
p5824
I22
sS'515127'
p5825
I3103
sS'SOLEMS'
p5826
I3629
sS'WIMPLAST'
p5827
I4336
sS'513353'
p5828
I769
sS'513355'
p5829
I2329
sS'513605'
p5830
I3287
sS'513359'
p5831
I2302
sS'530117'
p5832
I1550
sS'530111'
p5833
I3065
sS'PASUPTACRY'
p5834
I2833
sS'530119'
p5835
I2567
sS'524348'
p5836
I21
sS'SWANENERGY'
p5837
I3846
sS'BSLGOLDETF'
p5838
I538
sS'JENSONICOL'
p5839
I1858
sS'NATIONALUM'
p5840
I2557
sS'538685'
p5841
I3292
sS'517296'
p5842
I2773
sS'505850'
p5843
I3884
sS'ORCHIDCHEM'
p5844
I2723
sS'BANKBEES'
p5845
I452
sS'501430'
p5846
I570
sS'INIFTY'
p5847
I1586
sS'509953'
p5848
I4008
sS'WOOLWORTH'
p5849
I4296
sS'PACIFICIND'
p5850
I2782
sS'PRIMESECU'
p5851
I2973
sS'512553'
p5852
I4385
sS'VENLONPOLY'
p5853
I4203
sS'517077'
p5854
I1629
sS'512559'
p5855
I2073
sS'BLUESTARCO'
p5856
I559
sS'VOLTAS'
p5857
I4281
sS'NIRMA'
p5858
I2639
sS'TRICOM'
p5859
I4031
sS'OCTAV'
p5860
I2694
sS'524830'
p5861
I1019
sS'GLOBUSSPR'
p5862
I1302
sS'534742'
p5863
I4375
sS'FAME'
p5864
I1127
sS'514474'
p5865
I1124
sS'SURANAVEL'
p5866
I-1
sS'EROSMEDIA'
p5867
I1073
sS'523186'
p5868
I378
sS'VENUSUGAR'
p5869
I4206
sS'507490'
p5870
I3106
sS'507498'
p5871
I2884
sS'ZENSARTECH'
p5872
I4390
sS'DELTAMAGNT'
p5873
I896
sS'526691'
p5874
I2965
sS'505923'
p5875
I674
sS'PRAKASHCON'
p5876
I2764
sS'MALWACOTT'
p5877
I2294
sS'500209'
p5878
I1711
sS'500202'
p5879
I1644
sS'SCHNEIDER'
p5880
I3281
sS'500207'
p5881
I1684
sS'526546'
p5882
I732
sS'500204'
p5883
I1647
sS'TELEMARINE'
p5884
I3939
sS'NAKODA'
p5885
I2546
sS'526471'
p5886
I4338
sS'526473'
p5887
I1026
sS'526477'
p5888
I3645
sS'526479'
p5889
I3612
sS'GUJTHEMIS'
p5890
I1422
sS'BSL'
p5891
I607
sS'GUJCOTEX'
p5892
I1393
sS'531616'
p5893
I1835
sS'530329'
p5894
I2490
sS'530323'
p5895
I1072
sS'530321'
p5896
I4091
sS'KERALACHEM'
p5897
I2647
sS'501150'
p5898
I684
sS'501151'
p5899
I1984
sS'501154'
p5900
I3226
sS'504973'
p5901
I4048
sS'509130'
p5902
I976
sS'IOLCP'
p5903
I1769
sS'TIMETECHNO'
p5904
I3972
sS'INDTRADECO'
p5905
I1633
sS'SURANASOL'
p5906
I3820
sS'UNIMIN'
p5907
I4091
sS'501848'
p5908
I1299
sS'500289'
p5909
I2455
sS'MUNDRAPORT'
p5910
I-1
sS'KIRLOSENG'
p5911
I2055
sS'514400'
p5912
I1252
sS'GFL'
p5913
I4299
sS'514402'
p5914
I3471
sS'FCEL'
p5915
I1203
sS'509546'
p5916
I1358
sS'504864'
p5917
I2743
sS'531458'
p5918
I2159
sS'EMPEESUG'
p5919
I1048
sS'532275'
p5920
I2154
sS'SJVN'
p5921
I3606
sS'EUROCERA'
p5922
I1089
sS'531453'
p5923
I2435
sS'523405'
p5924
I1889
sS'531456'
p5925
I2410
sS'531454'
p5926
I2916
sS'532249'
p5927
I3678
sS'TAKE'
p5928
I3885
sS'532628'
p5929
I4403
sS'532240'
p5930
I1646
sS'532629'
p5931
I2359
sS'PICCADSUG'
p5932
I2884
sS'WELINV'
p5933
I4319
sS'COMSYS'
p5934
I782
sS'506313'
p5935
I574
sS'532624'
p5936
I1873
sS'531533'
p5937
I993
sS'506640'
p5938
I1424
sS'506315'
p5939
I580
sS'506642'
p5940
I3321
sS'531539'
p5941
I3207
sS'HAWKINCOOK'
p5942
I1468
sS'532626'
p5943
I2922
sS'500266'
p5944
I2273
sS'532998'
p5945
I2203
sS'AMTEKAUTO'
p5946
I178
sS'532621'
p5947
I2451
sS'21STCENMGM'
p5948
I4065
sS'PRATIBHA'
p5949
I2942
sS'516003'
p5950
I3386
sS'516007'
p5951
I2305
sS'STERLINHOL'
p5952
I3731
sS'PANCHMSTEL'
p5953
I2796
sS'GOENKA'
p5954
I1316
sS'513010'
p5955
I3915
sS'SBT'
p5956
I3717
sS'512493'
p5957
I1248
sS'512499'
p5958
I3462
sS'JPASSOCIAT'
p5959
I1821
sS'522113'
p5960
I3975
sS'BIOFILCHEM'
p5961
I529
sS'521127'
p5962
I2032
sS'521123'
p5963
I2847
sS'AXIS-IT&T;'
p5964
I-1
sS'SSLFINANCE'
p5965
I-1
sS'530919'
p5966
I3184
sS'530669'
p5967
I2953
sS'PIDILITIND'
p5968
I2885
sS'530915'
p5969
I1905
sS'530665'
p5970
I4387
sS'PANORAMUNI'
p5971
I2800
sS'RELGRNIFTY'
p5972
I3178
sS'BRITANNIA'
p5973
I600
sS'PEARLPOLY'
p5974
I2848
sS'IGL'
p5975
I1693
sS'517258'
p5976
I2949
sS'MRPL'
p5977
I2308
sS'519552'
p5978
I1488
sS'502015'
p5979
I318
sS'DALALSTCOM'
p5980
I970
sS'HEIDELBERG'
p5981
I1482
sS'503940'
p5982
I297
sS'590068'
p5983
I2029
sS'590069'
p5984
I-1
sS'590062'
p5985
I190
sS'590063'
p5986
I975
sS'590060'
p5987
I2421
sS'590061'
p5988
I603
sS'590066'
p5989
I1999
sS'590064'
p5990
I-1
sS'590065'
p5991
I1645
sS'PRIYADYES'
p5992
I2981
sS'TTML'
p5993
I3917
sS'511716'
p5994
I1077
sS'511714'
p5995
I2577
sS'ANTFRIBEAR'
p5996
I27
sS'511712'
p5997
I3175
sS'511710'
p5998
I835
sS'TATAMETALI'
p5999
I3911
sS'532401'
p6000
I4224
sS'532402'
p6001
I4158
sS'532403'
p6002
I1182
sS'532404'
p6003
I3405
sS'532405'
p6004
I669
sS'532406'
p6005
I351
sS'532407'
p6006
I2458
sS'532408'
p6007
I2373
sS'500945'
p6008
I4175
sS'500940'
p6009
I1157
sS'FTCPOF5YGR'
p6010
I1184
sS'NEXTMEDIA'
p6011
I2611
sS'ADANIPOWER'
p6012
I55
sS'526313'
p6013
I2671
sS'504084'
p6014
I1995
sS'504080'
p6015
I1907
sS'ZEELEARN'
p6016
I4379
sS'BANKBARODA'
p6017
I419
sS'532747'
p6018
I2046
sS'532746'
p6019
I4117
sS'532745'
p6020
I1906
sS'532744'
p6021
I1383
sS'532743'
p6022
I3173
sS'532742'
p6023
I2841
sS'532741'
p6024
I1963
sS'FORBESGOK'
p6025
I1172
sS'523796'
p6026
I4213
sS'MVL'
p6027
I2506
sS'532749'
p6028
I135
sS'532748'
p6029
I2970
sS'505529'
p6030
I3563
sS'507685'
p6031
I4342
sS'RKDL'
p6032
I3138
sS'FLEXITUFF'
p6033
I1119
sS'VSTTILLERS'
p6034
I4161
sS'DHFL'
p6035
I911
sS'VISHALEXPO'
p6036
I4257
sS'TAINWALCHM'
p6037
I3882
sS'505681'
p6038
I521
sS'505685'
p6039
I3899
sS'500418'
p6040
I3996
sS'500416'
p6041
I3985
sS'500414'
p6042
I3974
sS'500412'
p6043
I3964
sS'500413'
p6044
I3965
sS'500410'
p6045
I39
sS'500411'
p6046
I3960
sS'505358'
p6047
I3419
sS'TECHM'
p6048
I3929
sS'523652'
p6049
I3390
sS'505355'
p6050
I2595
sS'524226'
p6051
I1386
sS'INDIANHUME'
p6052
I1663
sS'PDUMJEPULP'
p6053
I3001
sS'PUNJABWOOL'
p6054
I3012
sS'523890'
p6055
I969
sS'513377'
p6056
I2424
sS'513375'
p6057
I660
sS'523896'
p6058
I355
sS'524322'
p6059
I1936
sS'523650'
p6060
I3148
sS'UNITEDBNK'
p6061
I4105
sS'534809'
p6062
I2778
sS'534804'
p6063
I617
sS'GODREJPROP'
p6064
I1315
sS'522229'
p6065
I3894
sS'ZENITHCOMP'
p6066
I4384
sS'ICRA'
p6067
I1599
sS'700108'
p6068
I3433
sS'700109'
p6069
I1782
sS'IDFC'
p6070
I1716
sS'700102'
p6071
I3699
sS'700107'
p6072
I2852
sS'RMCL'
p6073
I3045
sS'517271'
p6074
I1474
sS'509684'
p6075
I1640
sS'509930'
p6076
I3809
sS'RTNPOWER'
p6077
I3035
sS'501455'
p6078
I1363
sS'JMFINANCIL'
p6079
I1889
sS'SHRIRAMCIT'
p6080
I3552
sS'CENTUM'
p6081
I685
sS'512020'
p6082
I3382
sS'JINDALSWHL'
p6083
I-1
sS'512531'
p6084
I3719
sS'512024'
p6085
I2580
sS'512026'
p6086
I2870
sS'517015'
p6087
I4237
sS'502223'
p6088
I1103
sS'VISASTEEL'
p6089
I4252
sS'513472'
p6090
I3585
sS'VISHALRET'
p6091
I-1
sS'PHOENIXLTD'
p6092
I2877
sS'524816'
p6093
I2554
sS'524818'
p6094
I983
sS'SAMINDUS'
p6095
I3343
sS'506107'
p6096
I2947
sS'506105'
p6097
I3708
sS'506109'
p6098
I1271
sS'531210'
p6099
I771
sS'521036'
p6100
I3979
sS'NANDANEXIM'
p6101
I2517
sS'ALICON'
p6102
I127
sS'502958'
p6103
I2145
sS'507474'
p6104
I2087
sS'MAHINDCIE'
p6105
I2282
sS'507472'
p6106
I4206
sS'IFBIND'
p6107
I1606
sS'STRAUSIND'
p6108
I3304
sS'526677'
p6109
I970
sS'526671'
p6110
I2898
sS'DENSO'
p6111
I902
sS'500480'
p6112
I836
sS'503681'
p6113
I1014
sS'503685'
p6114
I2365
sS'522300'
p6115
I-1
sS'503689'
p6116
I1479
sS'530495'
p6117
I3057
sS'530497'
p6118
I2336
sS'PANAMAPET'
p6119
I2792
sS'VIJSHAN'
p6120
I4221
sS'530499'
p6121
I104
sS'CINELINE'
p6122
I743
sS'526415'
p6123
I2700
sS'NETWORK'
p6124
I2604
sS'PRITHVISOF'
p6125
I2979
sS'SOFTTECHGR'
p6126
I3627
sS'511367'
p6127
I652
sS'532452'
p6128
I3646
sS'511361'
p6129
I552
sS'533605'
p6130
I2764
sS'511369'
p6131
I1160
sS'504746'
p6132
I1665
sS'509110'
p6133
I240
sS'504741'
p6134
I1663
sS'KOKUYOCMLN'
p6135
I1927
sS'PROVOGE'
p6136
I2991
sS'ZUARIGLOB'
p6137
I4398
sS'ASILIND'
p6138
I196
sS'500083'
p6139
I688
sS'500085'
p6140
I700
sS'500084'
p6141
I693
sS'500087'
p6142
I746
sS'500086'
p6143
I1108
sS'500089'
p6144
I941
sS'PANCARBON'
p6145
I2794
sS'514460'
p6146
I2755
sS'514354'
p6147
I2959
sS'HYDROS&S;'
p6148
I1572
sS'531474'
p6149
I785
sS'506480'
p6150
I1425
sS'531470'
p6151
I2630
sS'531471'
p6152
I974
sS'531472'
p6153
I840
sS'507856'
p6154
I4097
sS'WENDT'
p6155
I4324
sS'531479'
p6156
I2288
sS'CHENNPETRO'
p6157
I719
sS'532264'
p6158
I701
sS'500627'
p6159
I1084
sS'500620'
p6160
I1361
sS'532262'
p6161
I3924
sS'512197'
p6162
I3582
sS'532268'
p6163
I1948
sS'523425'
p6164
I3793
sS'WILLARDLTD'
p6165
I4333
sS'PADMALAYAT'
p6166
I2784
sS'INTELLECT'
p6167
I1582
sS'FDC'
p6168
I1133
sS'SHIVAMAUTO'
p6169
I3502
sS'514286'
p6170
I283
sS'531519'
p6171
I204
sS'531518'
p6172
I4227
sS'514280'
p6173
I3374
sS'531517'
p6174
I113
sS'531515'
p6175
I2266
sS'509486'
p6176
I658
sS'KOTAKBKETF'
p6177
I1930
sS'518029'
p6178
I1417
sS'509480'
p6179
I461
sS'516020'
p6180
I2741
sS'516022'
p6181
I3710
sS'513039'
p6182
I1537
sS'530705'
p6183
I1168
sS'530707'
p6184
I81
sS'530701'
p6185
I1334
sS'530703'
p6186
I1706
sS'530709'
p6187
I1346
sS'IFCI'
p6188
I1607
sS'534631'
p6189
I622
sS'SAKHTISUG'
p6190
I3336
sS'522173'
p6191
I2098
sS'522175'
p6192
I3494
sS'SURYAPHARM'
p6193
I3823
sS'LFIC'
p6194
I2143
sS'500360'
p6195
I3117
sS'521147'
p6196
I2406
sS'532162'
p6197
I1800
sS'521149'
p6198
I2974
sS'505790'
p6199
I1123
sS'517481'
p6200
I259
sS'530643'
p6201
I1713
sS'EMKAY'
p6202
I1043
sS'505797'
p6203
I2416
sS'532164'
p6204
I2415
sS'532872'
p6205
I3776
sS'GARWARPOLY'
p6206
I1251
sS'WELCORP'
p6207
I4322
sS'511559'
p6208
I3973
sS'511557'
p6209
I2984
sS'511551'
p6210
I2605
sS'SAKSOFT'
p6211
I3334
sS'519570'
p6212
I2142
sS'511672'
p6213
I756
sS'GANECOS'
p6214
I1240
sS'502563'
p6215
I3507
sS'526081'
p6216
I3481
sS'511082'
p6217
I2816
sS'DHARSUGAR'
p6218
I928
sS'503960'
p6219
I490
sS'GOLDTECH'
p6220
I1331
sS'523229'
p6221
I499
sS'523222'
p6222
I1548
sS'523221'
p6223
I2360
sS'532468'
p6224
I3687
sS'532469'
p6225
I2343
sS'RAJESHEXPO'
p6226
I3078
sS'532460'
p6227
I2923
sS'517370'
p6228
I1627
sS'ARTSONENGG'
p6229
I263
sS'532467'
p6230
I1469
sS'NOCIL'
p6231
I2654
sS'NET4'
p6232
I2597
sS'CEREBRAINT'
p6233
I692
sS'HFCL'
p6234
I1499
sS'GABRIEL'
p6235
I1218
sS'526335'
p6236
I3539
sS'532721'
p6237
I4252
sS'532720'
p6238
I2279
sS'532723'
p6239
I2444
sS'532722'
p6240
I2642
sS'532725'
p6241
I3628
sS'532724'
p6242
I2468
sS'532727'
p6243
I60
sS'532726'
p6244
I1230
sS'532729'
p6245
I4142
sS'532728'
p6246
I2293
sS'590046'
p6247
I3619
sS'590041'
p6248
I1993
sS'590043'
p6249
I1454
sS'ZODJRDMKJ'
p6250
I4396
sS'590048'
p6251
I4069
sS'531289'
p6252
I1752
sS'531288'
p6253
I2162
sS'CINEPRO'
p6254
I620
sS'531283'
p6255
I741
sS'531281'
p6256
I2868
sS'531280'
p6257
I2799
sS'531287'
p6258
I2563
sS'500439'
p6259
I4184
sS'538538'
p6260
I4293
sS'532093'
p6261
I4201
sS'532092'
p6262
I2058
sS'532090'
p6263
I4026
sS'532097'
p6264
I2482
sS'632794'
p6265
I4380
sS'KLGSYSTEL'
p6266
I2065
sS'GIPCL'
p6267
I1400
sS'524796'
p6268
I4182
sS'500143'
p6269
I2869
sS'BURNPUR'
p6270
I609
sS'MCDOWELL-N'
p6271
I4113
sS'INDOSOLAR'
p6272
I1691
sS'RESPONIND'
p6273
I3188
sS'533411'
p6274
I3365
sS'533412'
p6275
I849
sS'509527'
p6276
I1126
sS'UBENGG'
p6277
I4075
sS'AROGRANITE'
p6278
I249
sS'STCINDIA'
p6279
I3719
sS'TIDEWATER'
p6280
I3967
sS'506874'
p6281
I312
sS'506879'
p6282
I1422
sS'SHREECEM'
p6283
I3508
sS'531088'
p6284
I4051
sS'531595'
p6285
I2441
sS'501473'
p6286
I2290
sS'501471'
p6287
I2238
sS'501477'
p6288
I2491
sS'517250'
p6289
I1734
sS'501479'
p6290
I2610
sS'530533'
p6291
I3947
sS'THEBYKE'
p6292
I-1
sS'JKSYNTHETC'
p6293
I1885
sS'509910'
p6294
I3649
sS'GTOFFSHORE'
p6295
I1362
sS'JYOTISTRUC'
p6296
I1924
sS'517035'
p6297
I3261
sS'EDELWEISS'
p6298
I1005
sS'512047'
p6299
I2566
sS'532823'
p6300
I1089
sS'512048'
p6301
I3675
sS'512519'
p6302
I960
sS'524514'
p6303
I4050
sS'532826'
p6304
I3067
sS'535648'
p6305
I1797
sS'520155'
p6306
I32
sS'520151'
p6307
I3540
sS'FAGBEARING'
p6308
I1123
sS'532829'
p6309
I2160
sS'SRICHAMUND'
p6310
I3690
sS'SBBJ'
p6311
I3714
sS'506122'
p6312
I2798
sS'531709'
p6313
I1321
sS'506128'
p6314
I2097
sS'526433'
p6315
I313
sS'531703'
p6316
I4030
sS'TECHNOFAB'
p6317
I3934
sS'600112'
p6318
I3718
sS'RAJRAYON'
p6319
I3066
sS'507450'
p6320
I3963
sS'DRREDDY'
p6321
I965
sS'507458'
p6322
I4106
sS'507180'
p6323
I2016
sS'533256'
p6324
I1541
sS'533257'
p6325
I1691
sS'533252'
p6326
I4319
sS'APPAPER'
p6327
I-1
sS'522091'
p6328
I4115
sS'533258'
p6329
I3982
sS'533259'
p6330
I2396
sS'526650'
p6331
I4004
sS'526652'
p6332
I643
sS'526654'
p6333
I3954
sS'507981'
p6334
I1871
sS'507984'
p6335
I3441
sS'507987'
p6336
I1917
sS'531921'
p6337
I83
sS'531591'
p6338
I414
sS'DIAPOWER'
p6339
I939
sS'CANDC'
p6340
I635
sS'526435'
p6341
I2859
sS'526431'
p6342
I4323
sS'DCHL'
p6343
I884
sS'526439'
p6344
I160
s.