(dp0
S'524494'
p1
I1773
sS'504180'
p2
I3704
sS'ESTER'
p3
I1087
sS'FLATPROD'
p4
I1165
sS'LAOPALA'
p5
I2134
sS'532343'
p6
I4063
sS'532342'
p7
I1783
sS'ITDCEM'
p8
I1785
sS'501111'
p9
I1322
sS'523054'
p10
I524
sS'500547'
p11
I497
sS'HDFC'
p12
I1561
sS'505585'
p13
I2092
sS'BEL'
p14
I491
sS'522289'
p15
I1610
sS'RAMANEWS'
p16
I3093
sS'KOTAKBANK'
p17
I2081
sS'514448'
p18
I1923
sS'TARMAT'
p19
I3874
sS'514446'
p20
I2175
sS'514440'
p21
I992
sS'514442'
p22
I482
sS'532713'
p23
I3337
sS'ELGIEQUIP'
p24
I1028
sS'HARITASEAT'
p25
I1454
sS'523445'
p26
I3166
sS'531496'
p27
I2708
sS'531497'
p28
I2241
sS'531494'
p29
I2573
sS'531495'
p30
I556
sS'531492'
p31
I2856
sS'506460'
p32
I3564
sS'COROENGG'
p33
I805
sS'532286'
p34
I1877
sS'532287'
p35
I1061
sS'532284'
p36
I3921
sS'532285'
p37
I1276
sS'532282'
p38
I179
sS'532283'
p39
I1935
sS'532281'
p40
I1476
sS'PUNJABCHEM'
p41
I3008
sS'MONSANTO'
p42
I2448
sS'513583'
p43
I3411
sS'506605'
p44
I2913
sS'VSTIND'
p45
I4284
sS'HATHWAY'
p46
I1465
sS'514378'
p47
I4362
sS'VAIBHAVGBL'
p48
I4153
sS'590054'
p49
I1861
sS'SUPREMEINF'
p50
I3810
sS'UNITY'
p51
I4117
sS'513059'
p52
I1374
sS'NETWORK18'
p53
I2603
sS'SUPREMEIND'
p54
I3809
sS'530723'
p55
I311
sS'530721'
p56
I192
sS'NAHARINDUS'
p57
I2542
sS'LML'
p58
I2192
sS'PDSMFL'
p59
I2771
sS'JUSTDIAL'
p60
I1797
sS'533393'
p61
I3922
sS'522152'
p62
I3633
sS'522150'
p63
I68
sS'ABAN'
p64
I24
sS'533399'
p65
I2814
sS'533398'
p66
I2505
sS'506230'
p67
I115
sS'530621'
p68
I107
sS'530627'
p69
I4246
sS'521163'
p70
I4395
sS'521161'
p71
I3693
sS'DPL'
p72
I854
sS'521167'
p73
I218
sS'512185'
p74
I1770
sS'LT'
p75
I2156
sS'509496'
p76
I1785
sS'RENUKA'
p77
I3530
sS'509499'
p78
I683
sS'HINDOILEXP'
p79
I1529
sS'511571'
p80
I3636
sS'ICIL'
p81
I1680
sS'PNC'
p82
I2980
sS'PNB'
p83
I3010
sS'511750'
p84
I276
sS'INDTERRAIN'
p85
I1670
sS'511756'
p86
I36
sS'511754'
p87
I3460
sS'503722'
p88
I425
sS'532916'
p89
I426
sS'523209'
p90
I2620
sS'532914'
p91
I235
sS'532915'
p92
I3176
sS'532912'
p93
I2597
sS'532913'
p94
I747
sS'532910'
p95
I195
sS'532443'
p96
I691
sS'523200'
p97
I758
sS'523204'
p98
I24
sS'532918'
p99
I3129
sS'523207'
p100
I648
sS'531934'
p101
I3812
sS'531937'
p102
I441
sS'531936'
p103
I554
sS'531930'
p104
I3393
sS'531932'
p105
I695
sS'531939'
p106
I1273
sS'AHMEDFORGE'
p107
I94
sS'526355'
p108
I977
sS'532709'
p109
I3172
sS'532708'
p110
I1433
sS'532702'
p111
I1420
sS'MRF'
p112
I2475
sS'532700'
p113
I1064
sS'532707'
p114
I986
sS'532706'
p115
I1728
sS'532705'
p116
I1805
sS'500450'
p117
I2473
sS'500456'
p118
I2833
sS'500458'
p119
I2874
sS'500459'
p120
I2986
sS'SANOFI'
p121
I3265
sS'555555'
p122
I2993
sS'527005'
p123
I3521
sS'527001'
p124
I277
sS'505397'
p125
I3931
sS'524264'
p126
I4090
sS'M100'
p127
I2464
sS'MORARJETEX'
p128
I2451
sS'533470'
p129
I3259
sS'533477'
p130
I1056
sS'PARACABLES'
p131
I2812
sS'526779'
p132
I1505
sS'APIL'
p133
I148
sS'CHETTINAD'
p134
I721
sS'ADANIPORTS'
p135
I1
sS'509709'
p136
I1756
sS'MODIRUBBER'
p137
I2432
sS'506858'
p138
I1412
sS'APOLLOHOSP'
p139
I222
sS'506854'
p140
I3895
sS'AARTIDRUGS'
p141
I21
sS'506852'
p142
I3007
sS'517230'
p143
I2785
sS'514043'
p144
I1504
sS'517236'
p145
I641
sS'RELIGARE'
p146
I3176
sS'IDBI'
p147
I1601
sS'MCDHOLDING'
p148
I2357
sS'508956'
p149
I1471
sS'ZYDUSWELL'
p150
I4400
sS'MANJEERA'
p151
I2311
sS'UNITECH'
p152
I4104
sS'NAUKRI'
p153
I2531
sS'530067'
p154
I791
sS'523586'
p155
I1671
sS'523856'
p156
I3999
sS'523850'
p157
I367
sS'512068'
p158
I885
sS'512065'
p159
I2477
sS'512067'
p160
I4262
sS'512062'
p161
I3372
sS'514474'
p162
I1124
sS'CROMPGREAV'
p163
I830
sS'SHARONBIO'
p164
I3279
sS'LAKSHVILAS'
p165
I2147
sS'RATNAMANI'
p166
I3134
sS'531728'
p167
I175
sS'531720'
p168
I143
sS'531723'
p169
I598
sS'531724'
p170
I1565
sS'531726'
p171
I2797
sS'531727'
p172
I2381
sS'DYNASYS'
p173
I981
sS'FACT'
p174
I1140
sS'CRANESSOFT'
p175
I819
sS'507435'
p176
I2033
sS'507438'
p177
I1605
sS'PENINLAND'
p178
I2851
sS'MINDACORP'
p179
I2220
sS'MODIALKALI'
p180
I2234
sS'533270'
p181
I442
sS'533271'
p182
I290
sS'533272'
p183
I775
sS'526987'
p184
I776
sS'533274'
p185
I2964
sS'533275'
p186
I1435
sS'533276'
p187
I604
sS'526983'
p188
I291
sS'533278'
p189
I765
sS'RUCHINFRA'
p190
I3252
sS'BRANDHOUSE'
p191
I590
sS'J&KBANK;'
p192
I1829
sS'DHANBANK'
p193
I917
sS'526185'
p194
I1758
sS'526187'
p195
I3877
sS'HMVL'
p196
I1527
sS'NIITTECH'
p197
I2625
sS'INDHOTEL'
p198
I1662
sS'VALECHAENG'
p199
I4169
sS'BARTRONICS'
p200
I429
sS'500840'
p201
I1011
sS'ALCHEM'
p202
I117
sS'BINANIIND'
p203
I523
sS'SEINVEST'
p204
I3424
sS'504701'
p205
I1335
sS'504704'
p206
I1291
sS'506016'
p207
I1826
sS'PSL'
p208
I2995
sS'PSB'
p209
I3006
sS'531499'
p210
I3854
sS'515043'
p211
I3333
sS'RAJTV'
p212
I3067
sS'BELLARYSTL'
p213
I447
sS'531129'
p214
I1623
sS'531126'
p215
I4251
sS'531127'
p216
I1058
sS'TATAMTRDVR'
p217
I3913
sS'531120'
p218
I2836
sS'523449'
p219
I3475
sS'AMBUJACEM'
p220
I161
sS'532116'
p221
I4358
sS'532117'
p222
I2901
sS'532114'
p223
I118
sS'532113'
p224
I597
sS'NOL'
p225
I2560
sS'SRF'
p226
I3686
sS'500095'
p227
I4354
sS'BPL'
p228
I585
sS'523465'
p229
I1630
sS'523467'
p230
I1812
sS'ASTERSILI'
p231
I321
sS'SMSPHARMA '
p232
I3620
sS'JAGSNPHARM'
p233
I1808
sS'500660'
p234
I1294
sS'501827'
p235
I682
sS'ATUL'
p236
I331
sS'PFRL'
p237
I2777
sS'COREEDUTEC'
p238
I803
sS'500252'
p239
I2144
sS'513216'
p240
I4141
sS'SPANCO'
p241
I3659
sS'500253'
p242
I2173
sS'530299'
p243
I2088
sS'HERITGFOOD'
p244
I1488
sS'532637'
p245
I2304
sS'530295'
p246
I3525
sS'530291'
p247
I3062
sS'500255'
p248
I2192
sS'HAVELLS'
p249
I1467
sS'SUNTECK'
p250
I3795
sS'UNIPHOS'
p251
I4112
sS'CPSEETF'
p252
I631
sS'524031'
p253
I3944
sS'530743'
p254
I1267
sS'AVENTIS'
p255
I353
sS'530745'
p256
I2193
sS'530747'
p257
I1675
sS'ALPA'
p258
I142
sS'RJL'
p259
I3185
sS'VITALCOMM'
p260
I4268
sS'WABAG'
p261
I4297
sS'BALAMINES'
p262
I403
sS'BLUECHIP'
p263
I554
sS'ROMAN'
p264
I3224
sS'530609'
p265
I662
sS'530605'
p266
I1377
sS'DAGERFORST'
p267
I861
sS'PRAKASH'
p268
I2937
sS'CEATLTD'
p269
I672
sS'504959'
p270
I3744
sS'NUCENT'
p271
I2673
sS'600300'
p272
I1355
sS'519532'
p273
I309
sS'512307'
p274
I4070
sS'512301'
p275
I699
sS'512309'
p276
I3229
sS'KAVVERITEL'
p277
I1993
sS'505737'
p278
I1755
sS'SUDITIND'
p279
I3762
sS'523260'
p280
I2848
sS'523261'
p281
I4202
sS'PIONDIST'
p282
I2887
sS'523269'
p283
I75
sS'532930'
p284
I473
sS'532931'
p285
I609
sS'532932'
p286
I2298
sS'532933'
p287
I2927
sS'532934'
p288
I2950
sS'532935'
p289
I241
sS'ENIL'
p290
I1064
sS'532937'
p291
I30
sS'532938'
p292
I1202
sS'532939'
p293
I3174
sS'ASHOKALCO'
p294
I288
sS'500033'
p295
I1173
sS'531919'
p296
I2480
sS'531918'
p297
I1516
sS'531917'
p298
I4067
sS'531913'
p299
I1339
sS'531911'
p300
I1225
sS'531910'
p301
I3994
sS'IGOLD'
p302
I1587
sS'CAPF'
p303
I618
sS'NHPC'
p304
I2617
sS'590088'
p305
I62
sS'590089'
p306
I697
sS'AANJANEYA'
p307
I19
sS'590080'
p308
I996
sS'590081'
p309
I588
sS'590082'
p310
I2195
sS'590083'
p311
I2346
sS'590084'
p312
I1967
sS'590085'
p313
I1305
sS'590086'
p314
I2742
sS'590087'
p315
I1031
sS'500477'
p316
I289
sS'SATYAMCOMP'
p317
I3401
sS'LAKSHMIMIL'
p318
I2145
sS'500472'
p319
I3607
sS'507652'
p320
I2551
sS'511630'
p321
I3346
sS'508494'
p322
I4306
sS'526373'
p323
I742
sS'TFCILTD'
p324
I4004
sS'526371'
p325
I2652
sS'533189'
p326
I1316
sS'526379'
p327
I2076
sS'533181'
p328
I1763
sS'523846'
p329
I3614
sS'524288'
p330
I97
sS'RAMAPETRO'
p331
I3095
sS'524280'
p332
I2077
sS'533451'
p333
I1981
sS'503873'
p334
I2982
sS'504392'
p335
I2494
sS'SALONACOT'
p336
I3340
sS'504398'
p337
I3605
sS'530199'
p338
I3959
sS'530197'
p339
I387
sS'530191'
p340
I736
sS'ARCHIDPLY'
p341
I233
sS'501700'
p342
I1672
sS'509728'
p343
I512
sS'514030'
p344
I893
sS'514034'
p345
I1852
sS'514036'
p346
I2205
sS'TEXMOPIPES'
p347
I3950
sS'VASWANI'
p348
I4147
sS'517214'
p349
I3309
sS'509627'
p350
I1522
sS'523876'
p351
I1922
sS'IONEXCHANG'
p352
I1771
sS'523874'
p353
I2948
sS'523872'
p354
I2257
sS'531352'
p355
I2850
sS'NEOSACK'
p356
I2591
sS'531359'
p357
I3551
sS'531358'
p358
I727
sS'523878'
p359
I4003
sS'532325'
p360
I4268
sS'532324'
p361
I745
sS'PARAPRINT'
p362
I2814
sS'532326'
p363
I1745
sS'532321'
p364
I639
sS'532320'
p365
I2616
sS'532323'
p366
I3495
sS'532322'
p367
I1020
sS'513683'
p368
I2613
sS'532329'
p369
I870
sS'513685'
p370
I2492
sS'FGPIND'
p371
I1141
sS'520111'
p372
I3134
sS'520113'
p373
I4211
sS'520115'
p374
I589
sS'520119'
p375
I346
sS'GICHSGFIN'
p376
I1281
sS'HINDUJAVEN'
p377
I1514
sS'MADHAV'
p378
I2240
sS'KNRCON'
p379
I2069
sS'NEPCMICON'
p380
I2594
sS'KCPSUGIND'
p381
I2000
sS'506164'
p382
I599
sS'531743'
p383
I1540
sS'531746'
p384
I2936
sS'506162'
p385
I1095
sS'ATLASCYCLE'
p386
I328
sS'530581'
p387
I1013
sS'508933'
p388
I4321
sS'HINDCOMPOS'
p389
I1518
sS'508939'
p390
I555
sS'PSTL'
p391
I3017
sS'502933'
p392
I1989
sS'507410'
p393
I4301
sS'502937'
p394
I2019
sS'502420'
p395
I2733
sS'EDL'
p396
I1047
sS'522059'
p397
I1635
sS'DBSTOCKBRO'
p398
I850
sS'533218'
p399
I1038
sS'533219'
p400
I321
sS'BRFL'
p401
I576
sS'526614'
p402
I1110
sS'533213'
p403
I1193
sS'533210'
p404
I2103
sS'533211'
p405
I2809
sS'526610'
p406
I1622
sS'533217'
p407
I1527
sS'526612'
p408
I557
sS'PDUMJEIND'
p409
I3000
sS'MONTECARLO'
p410
I2227
sS'BIHARSPONG'
p411
I515
sS'DION'
p412
I946
sS'505196'
p413
I3968
sS'MUNJALSHOW'
p414
I2497
sS'ARVIND'
p415
I268
sS'HINDNATGLS'
p416
I1536
sS'PRECWIRE'
p417
I2951
sS'UTTAMVALUE'
p418
I4073
sS'SPICEMOBI'
p419
I3289
sS'REPRO'
p420
I3186
sS'511654'
p421
I3763
sS'511652'
p422
I3091
sS'MANINDS'
p423
I2296
sS'511658'
p424
I2600
sS'SUPRAJIT'
p425
I3807
sS'IBPOW'
p426
I1652
sS'SINTEX'
p427
I3596
sS'JINDALSAW'
p428
I1875
sS'523019'
p429
I563
sS'EMMBI'
p430
I1044
sS'523011'
p431
I4312
sS'SUNTV'
p432
I3779
sS'531109'
p433
I1778
sS'531102'
p434
I3816
sS'531106'
p435
I4183
sS'500399'
p436
I3726
sS'532139'
p437
I1217
sS'532130'
p438
I962
sS'500390'
p439
I3168
sS'532133'
p440
I1608
sS'532134'
p441
I419
sS'500394'
p442
I3630
sS'ANDHRAPET'
p443
I188
sS'DABUR'
p444
I860
sS'ANIKINDS'
p445
I193
sS'JBMA'
p446
I1853
sS'500135'
p447
I1085
sS'500134'
p448
I1081
sS'500136'
p449
I1087
sS'500130'
p450
I1029
sS'500645'
p451
I891
sS'500132'
p452
I1048
sS'INDUSFILA'
p453
I1698
sS'500139'
p454
I1134
sS'JSWSTEEL'
p455
I1911
sS'524546'
p456
I3451
sS'524542'
p457
I3767
sS'524540'
p458
I3431
sS'NCC'
p459
I2536
sS'SERVALL'
p460
I3442
sS'506134'
p461
I1997
sS'506390'
p462
I755
sS'505255'
p463
I1307
sS'506395'
p464
I806
sS'506131'
p465
I1656
sS'HTMEDIA'
p466
I1568
sS'BAFNAPHARM'
p467
I374
sS'517973'
p468
I955
sS'CHEMPLAST'
p469
I717
sS'500371'
p470
I3353
sS'WEIZMANIND'
p471
I4312
sS'500370'
p472
I3341
sS'INDORAMA'
p473
I1684
sS'JAINSTUDIO'
p474
I1817
sS'VAKRANSOFT'
p475
I4168
sS'513097'
p476
I3501
sS'BASF'
p477
I431
sS'524136'
p478
I2849
sS'530765'
p479
I910
sS'STANDRDBAT'
p480
I3704
sS'530769'
p481
I4207
sS'524138'
p482
I2281
sS'ALBRMORARJ'
p483
I115
sS'LUMAXIND'
p484
I2210
sS'SITICABLE'
p485
I3291
sS'L&TFH;'
p486
I2132
sS'ICCNX100'
p487
I1580
sS'ZANDUREALT'
p488
I4377
sS'511577'
p489
I3403
sS' 570002'
p490
I2804
sS'GPPL'
p491
I1413
sS'FLFL'
p492
I1115
sS'FTCSF3YGRO'
p493
I1196
sS'517119'
p494
I2844
sS'AFTEK'
p495
I81
sS'514302'
p496
I4245
sS'511539'
p497
I4220
sS'511533'
p498
I3326
sS'513460'
p499
I2264
sS'511535'
p500
I2581
sS'512329'
p501
I1833
sS'CAMLINFINE'
p502
I627
sS'HINDALCO'
p503
I1510
sS'502090'
p504
I3323
sS'531689'
p505
I1673
sS'531688'
p506
I2979
sS'531687'
p507
I1988
sS'531686'
p508
I78
sS'531683'
p509
I203
sS'531682'
p510
I665
sS'531681'
p511
I171
sS'531680'
p512
I2352
sS'530889'
p513
I129
sS'523248'
p514
I2237
sS'530883'
p515
I3797
sS'530881'
p516
I686
sS'530887'
p517
I1626
sS'ESSELPACK'
p518
I1085
sS'530885'
p519
I1823
sS'532488'
p520
I950
sS'532489'
p521
I269
sS'532958'
p522
I1088
sS'532959'
p523
I1233
sS'502893'
p524
I2586
sS'532952'
p525
I2541
sS'532481'
p526
I2656
sS'532950'
p527
I2312
sS'532951'
p528
I1379
sS'532956'
p529
I3629
sS'532957'
p530
I1318
sS'532486'
p531
I2906
sS'532955'
p532
I3258
sS'SITASHREE'
p533
I3603
sS'BELLCERATL'
p534
I446
sS'ANKURDRUGS'
p535
I203
sS'531979'
p536
I1506
sS'531978'
p537
I159
sS'531972'
p538
I2254
sS'531977'
p539
I709
sS'VISESHINFO'
p540
I4255
sS'SELMCL'
p541
I3434
sS'507609'
p542
I2702
sS'TRIVENI'
p543
I4042
sS'522267'
p544
I4198
sS'522261'
p545
I959
sS'522263'
p546
I1890
sS'521076'
p547
I169
sS'521070'
p548
I141
sS'KRISNAFILA'
p549
I2100
sS'500151'
p550
I1328
sS'JHS'
p551
I1866
sS'BHARATRAS'
p552
I498
sS'524735'
p553
I1495
sS'524737'
p554
I460
sS'524731'
p555
I1857
sS'CESC'
p556
I693
sS'LIQUIDBEES'
p557
I2131
sS'SELAN'
p558
I3435
sS'526397'
p559
I145
sS'500159'
p560
I1297
sS'APLLTD'
p561
I121
sS'TUBEINVEST'
p562
I4048
sS'ORIENTCARB'
p563
I2736
sS'AMRUTANJAN'
p564
I177
sS'KANSAINER'
p565
I1974
sS'SUBEX'
p566
I3751
sS'PAPERPROD'
p567
I2807
sS'GUJFLUORO'
p568
I1396
sS'LLOYDFIN'
p569
I2189
sS'SABTN'
p570
I3689
sS'514010'
p571
I1498
sS'511758'
p572
I2316
sS'^BSESN'
p573
I605
sS'WEIZFOREX'
p574
I4311
sS'TULSYAN'
p575
I4054
sS'LOKESHMACH'
p576
I2197
sS'523810'
p577
I1949
sS'532917'
p578
I4188
sS'531374'
p579
I3313
sS'531373'
p580
I3750
sS'531370'
p581
I3660
sS'532447'
p582
I3635
sS'532309'
p583
I148
sS'532308'
p584
I1067
sS'532307'
p585
I2378
sS'532440'
p586
I2474
sS'532305'
p587
I1631
sS'532304'
p588
I2063
sS'532303'
p589
I1740
sS'532301'
p590
I3905
sS'532441'
p591
I3059
sS'VIPIND'
p592
I4243
sS'532442'
p593
I4116
sS'532911'
p594
I2824
sS'520139'
p595
I1806
sS'506985'
p596
I4066
sS'506981'
p597
I561
sS'520131'
p598
I767
sS'MANGLMCEM'
p599
I2303
sS'519494'
p600
I2651
sS'532919'
p601
I136
sS'RPGLIFE'
p602
I3241
sS'XCHANGING'
p603
I4356
sS'SAISERVICE'
p604
I3330
sS'KILITCH'
p605
I2041
sS'531768'
p606
I2912
sS'531769'
p607
I2866
sS'506186'
p608
I1228
sS'506184'
p609
I1965
sS'ASSAMCO'
p610
I314
sS'531761'
p611
I180
sS'506180'
p612
I3520
sS'526807'
p613
I3427
sS'526801'
p614
I2995
sS'PBAINFRA'
p615
I2842
sS'PENTACOMMU'
p616
I2856
sS'524091'
p617
I50
sS'HITECHPLAS'
p618
I1547
sS'517096'
p619
I219
sS'508918'
p620
I1368
sS'MUTHOOTFIN'
p621
I2505
sS'533230'
p622
I1478
sS'505982'
p623
I1512
sS'522073'
p624
I1493
sS'522074'
p625
I1028
sS'533239'
p626
I2938
sS'RAMAPHOSP'
p627
I3096
sS'526941'
p628
I4167
sS'526945'
p629
I4071
sS'NATHPULP'
p630
I2555
sS'526947'
p631
I2134
sS'KALYANIFRG'
p632
I1955
sS'CCCL'
p633
I789
sS'BALAJIDIST'
p634
I404
sS'526492'
p635
I3003
sS'526490'
p636
I2943
sS'SRTRANSFIN'
p637
I3554
sS'526494'
p638
I2989
sS'511493'
p639
I4196
sS'NATHSEED'
p640
I2556
sS'UCOBANK'
p641
I4077
sS'519475'
p642
I734
sS'530419'
p643
I3770
sS'AUROPHARMA'
p644
I337
sS'EXCELINDUS'
p645
I1104
sS'519479'
p646
I2706
sS'502407'
p647
I2555
sS'502405'
p648
I2509
sS'M&MFIN;'
p649
I2279
sS'NAVNETEDUL'
p650
I2524
sS'511676'
p651
I1281
sS'532545'
p652
I1187
sS'532544'
p653
I1651
sS'532541'
p654
I2625
sS'532540'
p655
I3907
sS'AHLUCONT'
p656
I90
sS'532542'
p657
I828
sS'523385'
p658
I2633
sS'523384'
p659
I2261
sS'500013'
p660
I209
sS'526237'
p661
I2456
sS'526235'
p662
I2382
sS'ZEEMEDIA'
p663
I4374
sS'509196'
p664
I2423
sS'530927'
p665
I1461
sS'523031'
p666
I16
sS'523030'
p667
I3075
sS'519003'
p668
I194
sS'IRB'
p669
I1776
sS'MIDVAL '
p670
I2403
sS'531162'
p671
I1039
sS'531163'
p672
I1737
sS'531160'
p673
I230
sS'531161'
p674
I38
sS'ADVANTA'
p675
I76
sS'531167'
p676
I2732
sS'531164'
p677
I2157
sS'SAMRUDDHI'
p678
I3351
sS'531169'
p679
I3609
sS'532150'
p680
I1694
sS'532156'
p681
I4166
sS'532154'
p682
I3217
sS'532155'
p683
I1222
sS'505299'
p684
I2112
sS'BOC'
p685
I566
sS'532701'
p686
I3684
sS'507836'
p687
I2236
sS'507833'
p688
I784
sS'HINDPETRO'
p689
I1531
sS'HIKAL'
p690
I1495
sS'506401'
p691
I892
sS'506405'
p692
I926
sS'500119'
p693
I915
sS'500117'
p694
I881
sS'500116'
p695
I1601
sS'500114'
p696
I3988
sS'500113'
p697
I3720
sS'500112'
p698
I3715
sS'500111'
p699
I3163
sS'500110'
p700
I719
sS'524564'
p701
I1256
sS'515003'
p702
I3662
sS'MURUDCERA'
p703
I2502
sS'513528'
p704
I1296
sS'514209'
p705
I3464
sS'XLENERGY'
p706
I4357
sS'514204'
p707
I568
sS'513250'
p708
I1924
sS'513252'
p709
I1840
sS'MICROSEC'
p710
I2396
sS'BHAGYNAGAR'
p711
I481
sS'USHAMART'
p712
I4133
sS'HONDAPOWER'
p713
I1552
sS'KMSUGAR'
p714
I1933
sS'RAMCOSYS'
p715
I3100
sS'MBECL'
p716
I2359
sS'PARAL'
p717
I2817
sS'530789'
p718
I673
sS'AMDIND'
p719
I163
sS'530787'
p720
I1720
sS'530781'
p721
I1759
sS'530783'
p722
I4009
sS'MUDRA'
p723
I2481
sS'KCP'
p724
I1999
sS'A2ZMES'
p725
I17
sS'NAGREEKCAP'
p726
I2539
sS'AARTIIND'
p727
I22
sS'512129'
p728
I1843
sS'517407'
p729
I4006
sS'JKLAKSHMI'
p730
I1883
sS'517403'
p731
I3778
sS'504918'
p732
I3359
sS'SANGHVIFOR'
p733
I3365
sS'KTIL'
p734
I2018
sS'512349'
p735
I2182
sS'512341'
p736
I3443
sS'512345'
p737
I4365
sS'512344'
p738
I229
sS'THOMASCOOK'
p739
I3965
sS'532974'
p740
I375
sS'532975'
p741
I98
sS'532976'
p742
I1810
sS'532977'
p743
I390
sS'532972'
p744
I3371
sS'532978'
p745
I394
sS'532979'
p746
I2893
sS'502873'
p747
I1564
sS'531952'
p748
I3195
sS'531950'
p749
I4209
sS'531959'
p750
I1762
sS'VINYLINDIA'
p751
I4241
sS'RELCNX100'
p752
I3033
sS'JAYPEEHOT'
p753
I1847
sS'507621'
p754
I2405
sS'PATNI'
p755
I2839
sS'522249'
p756
I2353
sS'522245'
p757
I1792
sS'522241'
p758
I2422
sS'RELGOLD'
p759
I3170
sS'526009'
p760
I2985
sS'521056'
p761
I720
sS'521054'
p762
I1947
sS'526001'
p763
I1836
sS'524717'
p764
I3987
sS'524715'
p765
I3777
sS'524711'
p766
I4266
sS'GMRINFRA'
p767
I1308
sS'524719'
p768
I3898
sS'AUSOMENT'
p769
I339
sS'RUBYMILLS'
p770
I3251
sS'RISHIPACK'
p771
I3210
sS'512167'
p772
I4367
sS'533148'
p773
I1909
sS'533149'
p774
I1083
sS'533146'
p775
I859
sS'533144'
p776
I817
sS'519606'
p777
I1741
sS'533143'
p778
I3162
sS'ORIENTCONT'
p779
I2727
sS'TRANSFREIT'
p780
I4010
sS'THANGAMAYL'
p781
I3958
sS'SHAKTIGAS'
p782
I3549
sS'526703'
p783
I1004
sS'PIRGLASS'
p784
I2891
sS'VICEROY'
p785
I4213
sS'522650'
p786
I448
sS'526707'
p787
I117
sS'533499'
p788
I502
sS'511116'
p789
I1492
sS'511110'
p790
I4159
sS'PGHH'
p791
I2986
sS'503831'
p792
I1170
sS'533495'
p793
I4317
sS'503837'
p794
I3523
sS'505665'
p795
I27
sS'COSMOFILMS'
p796
I812
sS'509762'
p797
I2318
sS'509760'
p798
I2429
sS'515055'
p799
I183
sS'SYNDIBANK'
p800
I3859
sS'PRISMCEM'
p801
I2976
sS'531319'
p802
I2334
sS'531318'
p803
I4013
sS'523838'
p804
I3586
sS'500561'
p805
I1895
sS'531310'
p806
I349
sS'ZUARI'
p807
I4375
sS'531312'
p808
I3373
sS'531314'
p809
I1733
sS'523523'
p810
I3061
sS'532369'
p811
I3099
sS'532368'
p812
I2150
sS'532360'
p813
I4238
sS'532363'
p814
I777
sS'532362'
p815
I2538
sS'532365'
p816
I981
sS'532364'
p817
I844
sS'532367'
p818
I1970
sS'SHYAMTEL'
p819
I3562
sS'WEBELSOLAR'
p820
I4309
sS'GLFL'
p821
I1405
sS'ANDHRSUGAR'
p822
I190
sS'RELBANK'
p823
I3171
sS'GOLDENTOBC'
p824
I1328
sS'509887'
p825
I3595
sS'ENGINERSIN'
p826
I1054
sS'RAIREKMOH'
p827
I3056
sS'530047'
p828
I3056
sS'530045'
p829
I3989
sS'530043'
p830
I47
sS'526829'
p831
I787
sS'526827'
p832
I3671
sS'TORRENGUJ'
p833
I3999
sS'526823'
p834
I3081
sS'526821'
p835
I863
sS'530049'
p836
I1879
sS'512599'
p837
I54
sS'SIYSIL'
p838
I3604
sS'512597'
p839
I2023
sS'508976'
p840
I3659
sS'522017'
p841
I1169
sS'522014'
p842
I4110
sS'522015'
p843
I4195
sS'STEL'
p844
I3277
sS'NEOCURTHER'
p845
I2529
sS'STER'
p846
I3735
sS'526921'
p847
I4065
sS'526927'
p848
I946
sS'NITCO'
p849
I2642
sS'WABCOINDIA'
p850
I4298
sS'KRITIIND'
p851
I1926
sS'522027'
p852
I1037
sS'RAIN'
p853
I3031
sS'530435'
p854
I2364
sS'530433'
p855
I3496
sS'530431'
p856
I70
sS'511473'
p857
I1636
sS'530439'
p858
I3568
sS'SHRIRAMEPC'
p859
I3553
sS'519455'
p860
I3711
sS'519457'
p861
I4248
sS'502460'
p862
I3631
sS'502465'
p863
I3663
sS'MANAKSIA'
p864
I2298
sS'590102'
p865
I3310
sS'590104'
p866
I2622
sS'590107'
p867
I2084
sS'590106'
p868
I452
sS'MICRO'
p869
I2393
sS'511618'
p870
I1867
sS'DISHMAN'
p871
I949
sS'GPIL'
p872
I1311
sS'511611'
p873
I877
sS'500820'
p874
I306
sS'500825'
p875
I600
sS'DHUNINV'
p876
I934
sS'526217'
p877
I1547
sS'REFEX'
p878
I3150
sS'523455'
p879
I3935
sS'AZTECSOFT'
p880
I368
sS'531149'
p881
I3528
sS'531144'
p882
I1015
sS'531621'
p883
I1112
sS'531146'
p884
I2366
sS'531147'
p885
I127
sS'531141'
p886
I3692
sS'500359'
p887
I3107
sS'500358'
p888
I3095
sS'532174'
p889
I1595
sS'532175'
p890
I1712
sS'500357'
p891
I3094
sS'500356'
p892
I3093
sS'500350'
p893
I3245
sS'532172'
p894
I772
sS'532173'
p895
I842
sS'500241'
p896
I2052
sS'507817'
p897
I4344
sS'507815'
p898
I1283
sS'507813'
p899
I2560
sS'500680'
p900
I2865
sS'500179'
p901
I1475
sS'500178'
p902
I1453
sS'500171'
p903
I1279
sS'500170'
p904
I1382
sS'500173'
p905
I1396
sS'505412'
p906
I4324
sS'500174'
p907
I1405
sS'500177'
p908
I1448
sS'TBZ'
p909
I3873
sS'501887'
p910
I3421
sS'524502'
p911
I2314
sS'524500'
p912
I2041
sS'TRIDENT'
p913
I4032
sS'524506'
p914
I800
sS'UNIENTER'
p915
I4095
sS'ONELIFECAP'
p916
I2681
sS'BSELINFRA'
p917
I606
sS'513509'
p918
I1955
sS'514221'
p919
I3303
sS'513502'
p920
I427
sS'PALCREDIT'
p921
I2787
sS'513507'
p922
I1392
sS'530239'
p923
I3837
sS'532293'
p924
I3627
sS'530235'
p925
I2062
sS'530237'
p926
I1236
sS'530231'
p927
I3752
sS'530233'
p928
I336
sS'SHEMAROO'
p929
I3292
sS'HEXAWARE'
p930
I1491
sS'ALOKTEXT'
p931
I141
sS'MTEDUCARE'
p932
I2224
sS'524174'
p933
I2017
sS'KEI'
p934
I2007
sS'KEC'
p935
I2003
sS'506685'
p936
I4081
sS'506687'
p937
I4019
sS'VISUINTL'
p938
I4267
sS'512105'
p939
I3519
sS'517423'
p940
I1735
sS'517421'
p941
I1235
sS'511076'
p942
I3397
sS'RAINCOM'
p943
I3058
sS'512109'
p944
I356
sS'SHARRESLTD'
p945
I3478
sS'SHAWALLACE'
p946
I3480
sS'509419'
p947
I4350
sS'520077'
p948
I178
sS'520075'
p949
I3347
sS'520073'
p950
I3136
sS'EONELECT'
p951
I1066
sS'INTEGRA'
p952
I1579
sS'512361'
p953
I838
sS'NDTV'
p954
I2608
sS'512369'
p955
I1057
sS'AXISGOLD'
p956
I363
sS'ATVPROJ'
p957
I332
sS'506027'
p958
I510
sS'506022'
p959
I2937
sS'510245'
p960
I3850
sS'EIMCOELECO'
p961
I1012
sS'CYBERTECH'
p962
I842
sS'532999'
p963
I3580
sS'532996'
p964
I1162
sS'532997'
p965
I2109
sS'532994'
p966
I233
sS'532995'
p967
I358
sS'532992'
p968
I726
sS'532993'
p969
I3449
sS'532990'
p970
I831
sS'532991'
p971
I2506
sS'505052'
p972
I760
sS'502850'
p973
I1219
sS'EMAMIINFRA'
p974
I1038
sS'GLOBOFFS'
p975
I1299
sS'500029'
p976
I343
sS'507315'
p977
I3336
sS'507645'
p978
I2911
sS'507649'
p979
I3126
sS'526027'
p980
I834
sS'526025'
p981
I1430
sS'521038'
p982
I3890
sS'530595'
p983
I4217
sS'521030'
p984
I2546
sS'530845'
p985
I3794
sS'521034'
p986
I3639
sS'530841'
p987
I509
sS'MALUPAPER'
p988
I2293
sS'524774'
p989
I2615
sS'ULTRMARINE'
p990
I4081
sS'SARLAPOLY'
p991
I3391
sS'SILINV'
p992
I3575
sS'BAJAJHLDNG'
p993
I397
sS'CYIENT'
p994
I614
sS'533168'
p995
I3233
sS'533169'
p996
I2297
sS'533160'
p997
I857
sS'533161'
p998
I1044
sS'533162'
p999
I1465
sS'533163'
p1000
I258
sS'533164'
p1001
I3950
sS'511288'
p1002
I1373
sS'533166'
p1003
I3784
sS'533167'
p1004
I805
sS'SSWL'
p1005
I3723
sS'503811'
p1006
I3604
sS'503816'
p1007
I3845
sS'511139'
p1008
I399
sS'511138'
p1009
I1367
sS'532793'
p1010
I3506
sS'511131'
p1011
I1961
sS'501945'
p1012
I1538
sS'523722'
p1013
I3840
sS'509782'
p1014
I2747
sS'AARVEEDEN'
p1015
I23
sS'OFSS'
p1016
I2719
sS'OSWALSUG'
p1017
I2686
sS'531080'
p1018
I3547
sS'531083'
p1019
I2623
sS'531082'
p1020
I1090
sS'531084'
p1021
I1678
sS'BLUESTINFO'
p1022
I558
sS'532699'
p1023
I3237
sS'532698'
p1024
I2646
sS'532691'
p1025
I4052
sS'532690'
p1026
I3104
sS'532693'
p1027
I3005
sS'532692'
p1028
I3045
sS'532695'
p1029
I677
sS'532694'
p1030
I429
sS'532696'
p1031
I1007
sS'NELCO'
p1032
I2590
sS'BLUECOAST'
p1033
I556
sS'531330'
p1034
I984
sS'531337'
p1035
I706
sS'531336'
p1036
I338
sS'531335'
p1037
I4400
sS'531334'
p1038
I4226
sS'531339'
p1039
I1813
sS'531338'
p1040
I2404
sS'NAHARPOLY'
p1041
I2543
sS'500540'
p1042
I2958
sS'CORDSCABLE'
p1043
I802
sS'532341'
p1044
I2194
sS'532340'
p1045
I2711
sS'532347'
p1046
I1483
sS'532346'
p1047
I558
sS'532345'
p1048
I1255
sS'532344'
p1049
I3626
sS'532349'
p1050
I4020
sS'532348'
p1051
I3751
sS'NETVISTAIT'
p1052
I2602
sS'521018'
p1053
I2319
sS'WSI'
p1054
I4353
sS'BLBLIMITED'
p1055
I547
sS'506235'
p1056
I120
sS'SHANTIGEAR'
p1057
I3469
sS'MAHLIFE'
p1058
I2284
sS'WELGLOB'
p1059
I4317
sS'SUNDARAM'
p1060
I3784
sS'NOESISIND'
p1061
I2518
sS'516108'
p1062
I3647
sS'516106'
p1063
I3515
sS'KOTAKGOLD'
p1064
I2080
sS'526849'
p1065
I415
sS'530061'
p1066
I3219
sS'530063'
p1067
I4366
sS'530065'
p1068
I1780
sS'508954'
p1069
I3368
sS'526841'
p1070
I3457
sS'530069'
p1071
I2990
sS'526843'
p1072
I3430
sS'PRASGLOFIN'
p1073
I3576
sS'526847'
p1074
I285
sS'INVENTURE'
p1075
I1764
sS'522034'
p1076
I3469
sS'522036'
p1077
I2420
sS'NAHARCAP'
p1078
I2541
sS'526905'
p1079
I2631
sS'526901'
p1080
I3643
sS'RANBAXY'
p1081
I3107
sS'504896'
p1082
I3131
sS'HELIOSMATH'
p1083
I1483
sS'530457'
p1084
I744
sS'530459'
p1085
I4174
sS'511451'
p1086
I927
sS'RAJVIR'
p1087
I3088
sS'GALLISPAT'
p1088
I1229
sS'519439'
p1089
I2886
sS'502448'
p1090
I3222
sS'502335'
p1091
I1898
sS'502330'
p1092
I189
sS'502445'
p1093
I3221
sS'511634'
p1094
I971
sS'511636'
p1095
I953
sS'GALPOWTEL'
p1096
I1224
sS'503310'
p1097
I3846
sS'511638'
p1098
I2242
sS'DEN'
p1099
I899
sS'523343'
p1100
I2395
sS'532509'
p1101
I3807
sS'532508'
p1102
I1908
sS'AISHWARYA'
p1103
I98
sS'532500'
p1104
I2335
sS'532503'
p1105
I3069
sS'532505'
p1106
I4077
sS'532504'
p1107
I2572
sS'532507'
p1108
I386
sS'CHROMATIC'
p1109
I621
sS'531854'
p1110
I1199
sS'531855'
p1111
I2931
sS'NAGARFERT'
p1112
I2537
sS'531858'
p1113
I2083
sS'531859'
p1114
I2739
sS'UPL'
p1115
I4074
sS'FIEMIND'
p1116
I1145
sS'PERIATEA'
p1117
I2860
sS'ORIENTCEM'
p1118
I2685
sS'507789'
p1119
I1808
sS'IVC'
p1120
I1618
sS'507785'
p1121
I3882
sS'IVP'
p1122
I1789
sS'KLRF'
p1123
I2067
sS'ACC'
p1124
I39
sS'500376'
p1125
I3401
sS'500375'
p1126
I3364
sS'500372'
p1127
I3352
sS'ACE'
p1128
I51
sS'505250'
p1129
I1278
sS'TWILITAKA'
p1130
I4066
sS'500378'
p1131
I1875
sS'OMMETALS'
p1132
I2703
sS'507878'
p1133
I4104
sS'524699'
p1134
I2038
sS'507870'
p1135
I2189
sS'507872'
p1136
I287
sS'504786'
p1137
I1765
sS'ORIENTINFO'
p1138
I2732
sS'500153'
p1139
I1238
sS'PUNJLLOYD'
p1140
I3005
sS'500150'
p1141
I1178
sS'500155'
p1142
I1245
sS'ANDHRABANK'
p1143
I186
sS'524520'
p1144
I3426
sS'524522'
p1145
I2138
sS'IIFLNIFTY'
p1146
I1575
sS'526721'
p1147
I2619
sS'NAGAROIL'
p1148
I2514
sS'506142'
p1149
I4289
sS'GDL'
p1150
I1254
sS'530215'
p1151
I4215
sS'530213'
p1152
I1177
sS'506146'
p1153
I4253
sS'500300'
p1154
I1354
sS'530219'
p1155
I3113
sS'VTXIND'
p1156
I4286
sS'501379'
p1157
I3480
sS'509046'
p1158
I2165
sS'509040'
p1159
I2599
sS'509048'
p1160
I2153
sS'WARRENTEA'
p1161
I4306
sS'SPLIL'
p1162
I3673
sS'501209'
p1163
I2250
sS'NUMERICPW'
p1164
I2676
sS'514242'
p1165
I2390
sS'514240'
p1166
I3622
sS'513566'
p1167
I2661
sS'AICHAMP '
p1168
I95
sS'526471'
p1169
I4338
sS'SUPER'
p1170
I3799
sS'KGL'
p1171
I1988
sS'512161'
p1172
I3228
sS'519600'
p1173
I668
sS'512163'
p1174
I1111
sS'519602'
p1175
I4274
sS'519604'
p1176
I3834
sS'517447'
p1177
I3244
sS'SHRERAJSYN'
p1178
I3523
sS'517449'
p1179
I2256
sS'500059'
p1180
I523
sS'509438'
p1181
I450
sS'520059'
p1182
I2496
sS'HINDCOPPER'
p1183
I1521
sS'ELECON'
p1184
I1022
sS'520051'
p1185
I1830
sS'520056'
p1186
I3782
sS'520057'
p1187
I3642
sS'POLYMED'
p1188
I2762
sS'GUJNRECOKE'
p1189
I1410
sS'512381'
p1190
I2648
sS'MANGTIMBER'
p1191
I2305
sS'WESTERNBIO'
p1192
I4294
sS'506971'
p1193
I3736
sS'CENTEXT'
p1194
I688
sS'531624'
p1195
I2529
sS'531627'
p1196
I3049
sS'531626'
p1197
I3579
sS'506003'
p1198
I3758
sS'531996'
p1199
I2695
sS'531991'
p1200
I174
sS'COLPAL'
p1201
I770
sS'531998'
p1202
I1611
sS'AUTOAXLES'
p1203
I345
sS'ONMOBILE'
p1204
I2715
sS'APOLLOTYRE'
p1205
I223
sS'502165'
p1206
I2691
sS'502168'
p1207
I2578
sS'MPHASIS'
p1208
I2472
sS'FAZETHREE'
p1209
I1131
sS'507663'
p1210
I3324
sS'533273'
p1211
I2688
sS'522207'
p1212
I3122
sS'WANBURY'
p1213
I4304
sS'522205'
p1214
I2935
sS'522209'
p1215
I4371
sS'526981'
p1216
I3541
sS'526043'
p1217
I2917
sS'526045'
p1218
I3304
sS'521016'
p1219
I1680
sS'521014'
p1220
I1093
sS'526049'
p1221
I3548
sS'503780'
p1222
I2669
sS'530863'
p1223
I1151
sS'530867'
p1224
I3832
sS'524758'
p1225
I4341
sS'524752'
p1226
I773
sS'524754'
p1227
I1406
sS'533103'
p1228
I1869
sS'533100'
p1229
I2956
sS'533101'
p1230
I3825
sS'533106'
p1231
I2699
sS'533107'
p1232
I2890
sS'533104'
p1233
I1302
sS'533108'
p1234
I507
sS'533109'
p1235
I1092
sS'INOXLEISUR'
p1236
I1728
sS'WELCORP'
p1237
I4322
sS'ALEMBICLTD'
p1238
I120
sS'ELDERPHARM'
p1239
I1020
sS'504646'
p1240
I479
sS'GITANJALI'
p1241
I1287
sS'504643'
p1242
I610
sS'519383'
p1243
I193
sS'511153'
p1244
I3041
sS'AMBIKCO'
p1245
I159
sS'POLARIS'
p1246
I2909
sS'BAJAJCORP'
p1247
I391
sS'BOSCHLTD'
p1248
I582
sS'523564'
p1249
I2454
sS'523566'
p1250
I2332
sS'INFINITE'
p1251
I1705
sS'532904'
p1252
I3810
sS'INOVATMARN'
p1253
I1725
sS'NETFINCO'
p1254
I2598
sS'SARKSYS'
p1255
I3389
sS'PEARLGLOBL'
p1256
I2847
sS'532901'
p1257
I2090
sS'532900'
p1258
I3424
sS'MULTIARC'
p1259
I2492
sS'532455'
p1260
I3463
sS'JINDALSTEL'
p1261
I1877
sS'532454'
p1262
I503
sS'513179'
p1263
I2564
sS'ARROWTEX'
p1264
I254
sS'514386'
p1265
I1393
sS'513173'
p1266
I3722
sS'TREEHOUSE'
p1267
I4024
sS'532804'
p1268
I3933
sS'BEPL'
p1269
I488
sS'526861'
p1270
I3209
sS'526865'
p1271
I1818
sS'526869'
p1272
I2114
sS'SUJANATOW'
p1273
I3765
sS'524038'
p1274
I4203
sS'524037'
p1275
I3096
sS'530001'
p1276
I1385
sS'530007'
p1277
I1886
sS'530005'
p1278
I1639
sS'KOTHARIPET'
p1279
I2086
sS'533292'
p1280
I17
sS'533293'
p1281
I2055
sS'STAR'
p1282
I3746
sS'533297'
p1283
I2051
sS'533294'
p1284
I3138
sS'533295'
p1285
I3006
sS'IMFA'
p1286
I1666
sS'533298'
p1287
I3820
sS'531900'
p1288
I724
sS'517380'
p1289
I1613
sS'MBLINFRA'
p1290
I2356
sS'517385'
p1291
I3856
sS'509597'
p1292
I1451
sS'509845'
p1293
I3214
sS'511433'
p1294
I3423
sS'511431'
p1295
I4168
sS'NEYVELILIG'
p1296
I2613
sS'519415'
p1297
I3054
sS'530479'
p1298
I1940
sS'512445'
p1299
I909
sS'512443'
p1300
I1243
sS'JAYSREETEA'
p1301
I1839
sS'530477'
p1302
I4231
sS'530475'
p1303
I3976
sS'512449'
p1304
I2780
sS'JAYAGROGN'
p1305
I1842
sS'TCIDEVELOP'
p1306
I3922
sS'NTPC'
p1307
I2565
sS'523367'
p1308
I879
sS'523363'
p1309
I3731
sS'511389'
p1310
I4218
sS'SHARDACROP'
p1311
I3298
sS'523369'
p1312
I880
sS'526785'
p1313
I826
sS'532523'
p1314
I528
sS'532522'
p1315
I2864
sS'ECEIND'
p1316
I1001
sS'532527'
p1317
I3101
sS'532526'
p1318
I949
sS'532525'
p1319
I2232
sS'532524'
p1320
I2998
sS'532529'
p1321
I2608
sS'532528'
p1322
I871
sS'531870'
p1323
I2926
sS'531874'
p1324
I4208
sS'531878'
p1325
I198
sS'531879'
p1326
I2887
sS'IPCALAB'
p1327
I1773
sS'UFLEX'
p1328
I4078
sS'VKSPL'
p1329
I4152
sS'ITI'
p1330
I1786
sS'JKIL'
p1331
I1801
sS'HORIZONINF'
p1332
I1554
sS'ITC'
p1333
I1784
sS'SPECTACLE'
p1334
I3664
sS'500520'
p1335
I2280
sS'500311'
p1336
I2674
sS'500310'
p1337
I2664
sS'500313'
p1338
I2698
sS'500312'
p1339
I2697
sS'500315'
p1340
I2735
sS'500314'
p1341
I2737
sS'500317'
p1342
I2749
sS'500319'
p1343
I2686
sS'500318'
p1344
I2754
sS'507852'
p1345
I57
sS'507506'
p1346
I2530
sS'507500'
p1347
I396
sS'507508'
p1348
I3203
sS'BIL'
p1349
I504
sS'PURVA'
p1350
I3013
sS'GISOLUTION'
p1351
I1280
sS'JCTEL'
p1352
I1854
sS'521206'
p1353
I3354
sS'CGCL'
p1354
I615
sS'526251'
p1355
I2397
sS'521200'
p1356
I3830
sS'526521'
p1357
I3363
sS'CENTURYPLY'
p1358
I689
sS'KREBSBIO'
p1359
I2096
sS'VIDEOIND'
p1360
I4218
sS'GOODRICKE'
p1361
I1337
sS'BLUEBLENDS'
p1362
I553
sS'MCX'
p1363
I2219
sS'BANSWRAS'
p1364
I425
sS'530271'
p1365
I3196
sS'MOSERBAER'
p1366
I2459
sS'530273'
p1367
I2169
sS'530279'
p1368
I2115
sS'TANEJAERO'
p1369
I3894
sS'509069'
p1370
I1708
sS'MADRASCEM'
p1371
I2248
sS'REPCOHOME'
p1372
I3032
sS'BATLIBOI'
p1373
I434
sS'501261'
p1374
I944
sS'501267'
p1375
I3529
sS'531276'
p1376
I577
sS'531274'
p1377
I2045
sS'531272'
p1378
I2627
sS'531273'
p1379
I3046
sS'531270'
p1380
I875
sS'531278'
p1381
I362
sS'531279'
p1382
I4038
sS'532067'
p1383
I2042
sS'HINDUJAFO'
p1384
I1512
sS'513548'
p1385
I3472
sS'SILVERANIMA'
p1386
I3580
sS'KIL'
p1387
I1963
sS'514264'
p1388
I3429
sS'514266'
p1389
I4386
sS'513540'
p1390
I3892
sS'ROHLTD'
p1391
I3237
sS'512149'
p1392
I350
sS'505160'
p1393
I3886
sS'517463'
p1394
I2177
sS'512634'
p1395
I3406
sS'517467'
p1396
I2330
sS'SOMATEX'
p1397
I3639
sS'HGSL'
p1398
I1513
sS'EUROMULTI'
p1399
I1092
sS'KITEX'
p1400
I1929
sS'MANINFRA'
p1401
I2297
sS'WHEELS'
p1402
I4329
sS'CANTABIL'
p1403
I654
sS'ORIENTABRA'
p1404
I2728
sS'531602'
p1405
I2071
sS'531601'
p1406
I1390
sS'531600'
p1407
I1317
sS'ATVPETRO'
p1408
I3842
sS'531609'
p1409
I2025
sS'531608'
p1410
I1342
sS'AVERY'
p1411
I354
sS'508853'
p1412
I1964
sS'KARURVYSYA'
p1413
I1987
sS'502761'
p1414
I553
sS'LAKHNNATNL'
p1415
I2793
sS'530803'
p1416
I476
sS'530801'
p1417
I1062
sS'530807'
p1418
I3153
sS'530809'
p1419
I565
sS'526067'
p1420
I2078
sS'MINDTREE'
p1421
I2413
sS'PUNALKALI'
p1422
I3007
sS'HOTELRUGBY'
p1423
I1556
sS'PAEL'
p1424
I2785
sS'KOUTONS'
p1425
I2090
sS'ESSAROIL'
p1426
I1081
sS'533121'
p1427
I3961
sS'533122'
p1428
I1652
sS'PSIDATASYS'
p1429
I2994
sS'FEDERALBNK'
p1430
I1135
sS'SHAMKNSPIN'
p1431
I3466
sS'512624'
p1432
I704
sS'504336'
p1433
I1633
sS'504335'
p1434
I3260
sS'512157'
p1435
I1096
sS'DHANUKA'
p1436
I923
sS'504629'
p1437
I196
sS'511176'
p1438
I2827
sS'523133'
p1439
I578
sS'LOKHSG'
p1440
I2196
sS'UNITEDTEA'
p1441
I4111
sS'505885'
p1442
I123
sS'500402'
p1443
I3676
sS'TRIGYN'
p1444
I4033
sS'531049'
p1445
I2584
sS'531044'
p1446
I2860
sS'531047'
p1447
I2331
sS'RAJPALAYAM'
p1448
I3069
sS'531040'
p1449
I2143
sS'531043'
p1450
I925
sS'HINDUNILVR'
p1451
I1533
sS'532659'
p1452
I1716
sS'JISLDVREQS'
p1453
I1794
sS'532654'
p1454
I2358
sS'532657'
p1455
I1121
sS'532656'
p1456
I1120
sS'532651'
p1457
I3673
sS'532650'
p1458
I2478
sS'532653'
p1459
I1566
sS'532652'
p1460
I1983
sS'VOLTAMP'
p1461
I4280
sS'COALINDIA'
p1462
I765
sS'532387'
p1463
I2980
sS'532386'
p1464
I642
sS'PHILIPCARB'
p1465
I2875
sS'500055'
p1466
I513
sS'500500'
p1467
I1528
sS'532382'
p1468
I405
sS'532381'
p1469
I1699
sS'500051'
p1470
I474
sS'500058'
p1471
I515
sS'532388'
p1472
I1668
sS'VESUVIUS'
p1473
I4211
sS'LLOYDMETAL'
p1474
I2190
sS'EMTEXIND'
p1475
I1051
sS'513153'
p1476
I2640
sS'513151'
p1477
I3739
sS'506904'
p1478
I634
sS'513488'
p1479
I3533
sS'530011'
p1480
I2307
sS'530393'
p1481
I876
sS'530391'
p1482
I2946
sS'517506'
p1483
I4047
sS'530395'
p1484
I1932
sS'KEMROCK'
p1485
I2010
sS'SPECIALITY'
p1486
I3273
sS'LUPIN'
p1487
I2212
sS'508996'
p1488
I3400
sS'530027'
p1489
I18
sS'508993'
p1490
I2005
sS'530023'
p1491
I1176
sS'526885'
p1492
I3391
sS'IOLN'
p1493
I1770
sS'526881'
p1494
I1152
sS'508998'
p1495
I3732
sS'524019'
p1496
I1572
sS'524013'
p1497
I1524
sS'GUJRATGAS'
p1498
I1398
sS'NKIND'
p1499
I2651
sS'JPOLYINVST'
p1500
I1795
sS'SALORAINTL'
p1501
I3341
sS'533296'
p1502
I85
sS'512289'
p1503
I3493
sS'ZENITHEXPO'
p1504
I4385
sS'511411'
p1505
I3555
sS'511413'
p1506
I3478
sS'532893'
p1507
I4285
sS'512461'
p1508
I3002
sS'532891'
p1509
I3013
sS'532890'
p1510
I3885
sS'512465'
p1511
I3377
sS'532895'
p1512
I2539
sS'532894'
p1513
I1692
sS'532899'
p1514
I1992
sS'532898'
p1515
I2929
sS'BATAINDIA'
p1516
I433
sS'502374'
p1517
I1032
sS'PANORAMUNI'
p1518
I2800
sS'ZYLOG'
p1519
I4401
sS'523301'
p1520
I3927
sS'523307'
p1521
I2795
sS'JAGAJITIND'
p1522
I1803
sS'INDOTHAI'
p1523
I1583
sS'ASAL'
p1524
I346
sS'500265'
p1525
I2274
sS'SWELECTES'
p1526
I3264
sS'ASHCONIUL'
p1527
I278
sS'531819'
p1528
I2679
sS'531812'
p1529
I3450
sS'531810'
p1530
I2385
sS'531816'
p1531
I2800
sS'531814'
p1532
I3983
sS'502595'
p1533
I2061
sS'SARTHAKIND'
p1534
I3280
sS'STOREONE'
p1535
I3743
sS'521194'
p1536
I3575
sS'GOODYEAR'
p1537
I1338
sS'500339'
p1538
I3058
sS'500338'
p1539
I2976
sS'500333'
p1540
I2897
sS'505744'
p1541
I1136
sS'500331'
p1542
I2885
sS'500330'
p1543
I3142
sS'500337'
p1544
I2973
sS'505216'
p1545
I126
sS'500335'
p1546
I532
sS'MAANALU'
p1547
I2295
sS'531616'
p1548
I1835
sS'507528'
p1549
I998
sS'507526'
p1550
I316
sS'507525'
p1551
I176
sS'524652'
p1552
I1632
sS'507522'
p1553
I2467
sS'SOLARINDS'
p1554
I3628
sS'MEGH'
p1555
I2374
sS'521220'
p1556
I869
sS'521222'
p1557
I2135
sS'526504'
p1558
I958
sS'526506'
p1559
I3864
sS'MERCATOR'
p1560
I2217
sS'526508'
p1561
I3610
sS'QGOLDHALF'
p1562
I3023
sS'LANCOIN'
p1563
I2151
sS'^NSEI'
p1564
I2670
sS'THEMISMED'
p1565
I3959
sS'MAX'
p1566
I2348
sS'515081'
p1567
I3696
sS'515085'
p1568
I3189
sS'530259'
p1569
I1749
sS'530253'
p1570
I3072
sS'530251'
p1571
I1345
sS'CAPLIPOINT'
p1572
I625
sS'530257'
p1573
I2399
sS'530255'
p1574
I1994
sS'501061'
p1575
I3714
sS'509009'
p1576
I339
sS'KITPLYIND'
p1577
I2061
sS'504220'
p1578
I4353
sS'500195'
p1579
I1557
sS'501391'
p1580
I4327
sS'500193'
p1581
I1555
sS'500192'
p1582
I2934
sS'500191'
p1583
I1551
sS'500199'
p1584
I1612
sS'512595'
p1585
I4092
sS'COLORCHIPS'
p1586
I772
sS'GLORY'
p1587
I1304
sS'SIGNETIND'
p1588
I3274
sS'NIPPOBATRY'
p1589
I2635
sS'WYETH'
p1590
I4354
sS'GOLCRESFIN'
p1591
I1323
sS'SRIPIPES'
p1592
I3287
sS'531250'
p1593
I527
sS'531252'
p1594
I1129
sS'531253'
p1595
I1641
sS'531254'
p1596
I4018
sS'531255'
p1597
I2811
sS'531256'
p1598
I2945
sS'531257'
p1599
I2944
sS'ESCORTSFIN'
p1600
I1077
sS'531259'
p1601
I2158
sS'LYPSAGEMS'
p1602
I2126
sS'532041'
p1603
I1517
sS'532042'
p1604
I1192
sS'EIDPARRY'
p1605
I1009
sS'532045'
p1606
I2612
sS'532047'
p1607
I298
sS'DENORA'
p1608
I3991
sS'509472'
p1609
I821
sS'509470'
p1610
I572
sS'504997'
p1611
I511
sS'509475'
p1612
I573
sS'BRIGADE'
p1613
I595
sS'530470'
p1614
I4111
sS'506590'
p1615
I2875
sS'506597'
p1616
I151
sS'TEXMACOLTD'
p1617
I3948
sS'SILVERLINE'
p1618
I3581
sS'517228'
p1619
I4025
sS'GRAPHITE'
p1620
I1353
sS'CHOWGULSTM'
p1621
I735
sS'531661'
p1622
I1549
sS'506734'
p1623
I2510
sS'531663'
p1624
I1746
sS'TECHNO'
p1625
I3930
sS'531664'
p1626
I2277
sS'531667'
p1627
I3534
sS'531668'
p1628
I4263
sS'NCOPPER'
p1629
I2515
sS'BRABOURNE'
p1630
I586
sS'SHARIABEES'
p1631
I3300
sS'512616'
p1632
I2740
sS'508875'
p1633
I2644
sS'911545'
p1634
I3380
sS'512618'
p1635
I3215
sS'502742'
p1636
I3596
sS'502294'
p1637
I2629
sS'JINDRILL'
p1638
I1870
sS'KOVAI'
p1639
I2091
sS'KARUNACAB'
p1640
I1985
sS'INNOIND'
p1641
I1727
sS'934770'
p1642
I4028
sS'CURATECH'
p1643
I839
sS'ALKYLAMINE'
p1644
I132
sS'GLODYNE'
p1645
I1303
sS'530829'
p1646
I739
sS'530825'
p1647
I864
sS'531341'
p1648
I1403
sS'570002'
p1649
I2803
sS'570003'
p1650
I1411
sS'570001'
p1651
I3913
sS'ASAHISONG'
p1652
I275
sS'SUDARSCHEM'
p1653
I3760
sS'METROCHEM'
p1654
I2387
sS'ASOCSTONE'
p1655
I318
sS'GRPLTD'
p1656
I1214
sS'513452'
p1657
I1016
sS'519200'
p1658
I2571
sS'502125'
p1659
I388
sS'SEATV'
p1660
I3425
sS'WSTCSTPAPR'
p1661
I4325
sS'526783'
p1662
I964
sS'513699'
p1663
I3632
sS'503655'
p1664
I80
sS'504353'
p1665
I3990
sS'504605'
p1666
I4085
sS'MIDINDIA'
p1667
I2398
sS'504358'
p1668
I4056
sS'503659'
p1669
I2148
sS'KANANIIND'
p1670
I1928
sS'523116'
p1671
I3355
sS'CAMBRIDGE'
p1672
I644
sS'SAREGAMA'
p1673
I3388
sS'523113'
p1674
I1204
sS'511194'
p1675
I1594
sS'511196'
p1676
I651
sS'NEHAINT'
p1677
I2588
sS'532521'
p1678
I1181
sS'513693'
p1679
I2036
sS'STARPAPER'
p1680
I3710
sS'531067'
p1681
I794
sS'531065'
p1682
I2753
sS'532788'
p1683
I4357
sS'SANWARIA'
p1684
I3378
sS'531069'
p1685
I4222
sS'500294'
p1686
I2536
sS'500295'
p1687
I3445
sS'500296'
p1688
I2544
sS'532674'
p1689
I423
sS'532673'
p1690
I1933
sS'532672'
p1691
I1303
sS'500292'
p1692
I1482
sS'532670'
p1693
I3530
sS'FTCSF3YDIV'
p1694
I1185
sS'500298'
p1695
I2561
sS'532679'
p1696
I3743
sS'532678'
p1697
I576
sS'TV18BRDCST'
p1698
I4060
sS'KWALITY'
p1699
I2122
sS'531391'
p1700
I3133
sS'531390'
p1701
I4130
sS'531392'
p1702
I299
sS'531395'
p1703
I2783
sS'531397'
p1704
I2914
sS'531396'
p1705
I4347
sS'531398'
p1706
I1767
sS'PETRONENGG'
p1707
I2863
sS'500072'
p1708
I579
sS'500073'
p1709
I584
sS'500074'
p1710
I585
sS'500075'
p1711
I2537
sS'500077'
p1712
I637
sS'500078'
p1713
I649
sS'513131'
p1714
I2386
sS'IGPL'
p1715
I1612
sS'INFRONICS'
p1716
I1717
sS'533506'
p1717
I1764
sS'BILPOWER'
p1718
I520
sS'MMFSL'
p1719
I2440
sS'RELDIVOPP'
p1720
I3028
sS'623574'
p1721
I2801
sS'514128'
p1722
I2075
sS'524075'
p1723
I114
sS'PENTSFWARE'
p1724
I2855
sS'TATAINVEST'
p1725
I3910
sS'ZEEL'
p1726
I4378
sS'PPAP'
p1727
I2950
sS'VMS'
p1728
I4275
sS'GODREJIND'
p1729
I1314
sS'512267'
p1730
I2363
sS'517344'
p1731
I2412
sS'AGRE'
p1732
I85
sS'TIPSINDLTD'
p1733
I3978
sS'RSWM'
p1734
I3245
sS'EVINIX'
p1735
I1101
sS'517168'
p1736
I3754
sS'512409'
p1737
I3370
sS'532879'
p1738
I3598
sS'532878'
p1739
I142
sS'532875'
p1740
I137
sS'532874'
p1741
I3826
sS'532877'
p1742
I3589
sS'532876'
p1743
I1100
sS'532871'
p1744
I678
sS'532870'
p1745
I202
sS'532873'
p1746
I1560
sS'DHANUS'
p1747
I924
sS'SHRIASTER'
p1748
I3295
sS'HCL-INSYS'
p1749
I1475
sS'502352'
p1750
I334
sS'502355'
p1751
I407
sS'AVTNPL'
p1752
I359
sS'SURAJDIAMN'
p1753
I3748
sS'523329'
p1754
I1018
sS'WALCHANNAG'
p1755
I4301
sS'523323'
p1756
I2091
sS'CARERATING'
p1757
I617
sS'531834'
p1758
I2568
sS'DCM'
p1759
I878
sS'531830'
p1760
I3993
sS'531831'
p1761
I4102
sS'531832'
p1762
I2534
sS'531838'
p1763
I108
sS'DCW'
p1764
I881
sS'JMTAUTOLTD'
p1765
I1894
sS'OIL'
p1766
I2699
sS'VULCANENG'
p1767
I4287
sS'511692'
p1768
I101
sS'511690'
p1769
I4305
sS'511696'
p1770
I708
sS'NAGREEKEXP'
p1771
I2540
sS'526747'
p1772
I2867
sS'511698'
p1773
I483
sS'526741'
p1774
I824
sS'HARRMALAYA'
p1775
I1459
sS'507894'
p1776
I3418
sS'507892'
p1777
I3748
sS'TVTODAY'
p1778
I4059
sS'INDIABULLS'
p1779
I1651
sS'507543'
p1780
I804
sS'SULZER'
p1781
I3769
sS'533083'
p1782
I3208
sS'533080'
p1783
I2439
sS'533089'
p1784
I3940
sS'533088'
p1785
I2283
sS'SRSLTD'
p1786
I3700
sS'530601'
p1787
I1807
sS'526299'
p1788
I2472
sS'526568'
p1789
I2198
sS'GUJAPOLLO'
p1790
I1387
sS'KAUSHALYA'
p1791
I1991
sS'521240'
p1792
I3345
sS'521246'
p1793
I2815
sS'521244'
p1794
I725
sS'524582'
p1795
I3984
sS'524580'
p1796
I2981
sS'AEGISCHEM'
p1797
I79
sS'524588'
p1798
I671
sS'PATELENG'
p1799
I2836
sS'SESAGOA'
p1800
I3445
sS'BSLIMITED'
p1801
I373
sS'511034'
p1802
I1870
sS'511031'
p1803
I1738
sS'BHUSANSTL'
p1804
I513
sS'WWIL'
p1805
I4343
sS'RCOM'
p1806
I3165
sS'505230'
p1807
I740
sS'509024'
p1808
I1326
sS'ETC'
p1809
I1088
sS'509026'
p1810
I261
sS'505232'
p1811
I901
sS'509020'
p1812
I3252
sS'OMAXAUTO'
p1813
I2704
sS'MARKSANS'
p1814
I2328
sS'SNOWMAN'
p1815
I3290
sS'AUTOCORP'
p1816
I344
sS'TVSELECT'
p1817
I4062
sS'TANFACIND'
p1818
I3895
sS'NUTEK'
p1819
I2672
sS'531233'
p1820
I3125
sS'531236'
p1821
I2389
sS'531237'
p1822
I933
sS'531234'
p1823
I4216
sS'531235'
p1824
I749
sS'532029'
p1825
I485
sS'532022'
p1826
I1146
sS'532021'
p1827
I3437
sS'532024'
p1828
I3143
sS'532025'
p1829
I3656
sS'ACCELYA'
p1830
I6
sS'UNIFLEX'
p1831
I4089
sS'PATSPINLTD'
p1832
I2840
sS'531648'
p1833
I3331
sS'531642'
p1834
I2325
sS'531640'
p1835
I865
sS'531646'
p1836
I3193
sS'531645'
p1837
I3650
sS'531644'
p1838
I3995
sS'UTISUNDER'
p1839
I4139
sS'TTKHEALTH'
p1840
I4046
sS'508814'
p1841
I812
sS'508815'
p1842
I1144
sS'CLASSIC'
p1843
I758
sS'PHILCORP'
p1844
I2874
sS'526525'
p1845
I4351
sS'526523'
p1846
I1838
sS'NIBL'
p1847
I2522
sS'JKDAIRY'
p1848
I4083
sS'INSECTICID'
p1849
I1729
sS'530519'
p1850
I1751
sS'512097'
p1851
I2724
sS'517571'
p1852
I1620
sS'512093'
p1853
I819
sS'530513'
p1854
I43
sS'512099'
p1855
I3004
sS'530517'
p1856
I3160
sS'LAXMIMACH'
p1857
I2144
sS'503092'
p1858
I2835
sS'HALONIX'
p1859
I1446
sS'TRITURBINE'
p1860
I3869
sS'511208'
p1861
I1618
sS'GUJBOROSIL'
p1862
I1389
sS'VIPUL'
p1863
I4247
sS'511200'
p1864
I2498
sS'UTTAMSTL'
p1865
I4141
sS'519228'
p1866
I3945
sS'RTNINFRA'
p1867
I3027
sS'519224'
p1868
I4335
sS'KSCL'
p1869
I1992
sS'504378'
p1870
I3139
sS'KGKHOSLA'
p1871
I2057
sS'DEEPAKFERT'
p1872
I891
sS'526173'
p1873
I191
sS'503675'
p1874
I82
sS'504370'
p1875
I237
sS'503673'
p1876
I763
sS'504375'
p1877
I3624
sS'519323'
p1878
I2501
sS'JKPAPER'
p1879
I1800
sS'KOPDRUGS'
p1880
I2002
sS'CNOVAPETRO'
p1881
I629
sS'RKFORGE'
p1882
I3101
sS'531003'
p1883
I3848
sS'ESTL'
p1884
I1084
sS'RASOYPR'
p1885
I3037
sS'532610'
p1886
I980
sS'532613'
p1887
I2350
sS'532612'
p1888
I1688
sS'STINDIA'
p1889
I3739
sS'532617'
p1890
I1859
sS'500279'
p1891
I2417
sS'532619'
p1892
I4143
sS'500277'
p1893
I2398
sS'500271'
p1894
I2348
sS'507970'
p1895
I2813
sS'SKUMARSYNF'
p1896
I3312
sS'532217'
p1897
I3570
sS'505029'
p1898
I328
sS'500019'
p1899
I422
sS'500012'
p1900
I188
sS'505533'
p1901
I922
sS'500010'
p1902
I1561
sS'505537'
p1903
I4378
sS'500014'
p1904
I224
sS'513713'
p1905
I4331
sS'532648'
p1906
I4370
sS'524448'
p1907
I89
sS'524446'
p1908
I3316
sS'524444'
p1909
I1824
sS'524440'
p1910
I646
sS'ADFFOODS'
p1911
I59
sS'ATFL'
p1912
I87
sS'513119'
p1913
I28
sS'514328'
p1914
I2533
sS'514324'
p1915
I2713
sS'514326'
p1916
I2840
sS'513117'
p1917
I164
sS'ATLASCOPCO'
p1918
I327
sS'TWL'
p1919
I3986
sS'514322'
p1920
I1959
sS'508664'
p1921
I466
sS'530357'
p1922
I1998
sS'530355'
p1923
I305
sS'533520'
p1924
I1655
sS'533525'
p1925
I3179
sS'BHEL'
p1926
I495
sS'514140'
p1927
I3833
sS'514142'
p1928
I4045
sS'514144'
p1929
I4296
sS'OUDHSUG'
p1930
I2756
sS'HOPFL '
p1931
I1559
sS'524055'
p1932
I2805
sS'524051'
p1933
I2918
sS'GUJNREDVR'
p1934
I1411
sS'501630'
p1935
I182
sS'KIRLOSIND'
p1936
I2056
sS'506943'
p1937
I1851
sS'GUJRAFFIA'
p1938
I1415
sS'506947'
p1939
I73
sS'FERROALLOY'
p1940
I1139
sS'EON'
p1941
I991
sS'HUBTOWN'
p1942
I1442
sS'512245'
p1943
I2649
sS'512247'
p1944
I284
sS'509820'
p1945
I2807
sS'CAPRIHANS'
p1946
I658
sS'GMBREW'
p1947
I1306
sS'532857'
p1948
I1304
sS'512425'
p1949
I2637
sS'532855'
p1950
I1460
sS'532854'
p1951
I2645
sS'532853'
p1952
I275
sS'532852'
p1953
I2357
sS'532851'
p1954
I1729
sS'DRDATSONS'
p1955
I849
sS'HINDTINWRK'
p1956
I1532
sS'532859'
p1957
I1513
sS'532858'
p1958
I888
sS'DICIND'
p1959
I941
sS'TALBROAUTO'
p1960
I3886
sS'531585'
p1961
I908
sS'506365'
p1962
I716
sS'531581'
p1963
I128
sS'531582'
p1964
I464
sS'531583'
p1965
I3116
sS'INOVSYNTH'
p1966
I1722
sS'MAHINDUGIN'
p1967
I2285
sS'CMC'
p1968
I761
sS'SHRENUJ'
p1969
I3537
sS'HOTELEELA'
p1970
I1555
sS'516098'
p1971
I4204
sS'PEPL'
p1972
I2846
sS'516092'
p1973
I3000
sS'516096'
p1974
I3360
sS'AHLEAST'
p1975
I301
sS'533326'
p1976
I3949
sS'533320'
p1977
I1913
sS'533321'
p1978
I518
sS'DENABANK'
p1979
I900
sS'533329'
p1980
I1670
sS'530985'
p1981
I1904
sS'532391'
p1982
I2718
sS'526761'
p1983
I1563
sS'530989'
p1984
I3470
sS'505854'
p1985
I4029
sS'524610'
p1986
I3130
sS'APARINDS'
p1987
I216
sS'524614'
p1988
I1661
sS'532395'
p1989
I364
sS'EDSERV'
p1990
I1006
sS'526544'
p1991
I3416
sS'NOVARTIND'
p1992
I2663
sS'533068'
p1993
I254
sS'RNRL'
p1994
I3172
sS'533065'
p1995
I3158
sS'AJANTPHARM'
p1996
I99
sS'GUFICBIO'
p1997
I1384
sS'BAGFILMS'
p1998
I386
sS'511012'
p1999
I4361
sS'511016'
p2000
I2955
sS'531893'
p2001
I3408
sS'BOMDYEING'
p2002
I571
sS'BALAJITELE'
p2003
I405
sS'505700'
p2004
I1022
sS'505703'
p2005
I882
sS'SYMPHONY'
p2006
I3856
sS'PIPAVAVDOC'
p2007
I2766
sS'GILLANDERS'
p2008
I1282
sS'TATASTEEL'
p2009
I3916
sS'504036'
p2010
I1508
sS'MICROTECH'
p2011
I2394
sS'523704'
p2012
I2338
sS'DSSL'
p2013
I852
sS'JKCEMENT'
p2014
I1882
sS'SUMMITSEC'
p2015
I3773
sS'523708'
p2016
I1012
sS'SBIGETS'
p2017
I3414
sS'SUBROS'
p2018
I3754
sS'512579'
p2019
I1410
sS'531215'
p2020
I3247
sS'531216'
p2021
I774
sS'531217'
p2022
I4326
sS'MONNETISPA'
p2023
I2443
sS'531211'
p2024
I3194
sS'531212'
p2025
I2547
sS'531213'
p2026
I2300
sS'531218'
p2027
I3205
sS'531219'
p2028
I2925
sS'VMJOGENGG'
p2029
I4157
sS'523648'
p2030
I2900
sS'532005'
p2031
I3343
sS'532001'
p2032
I1697
sS'500483'
p2033
I3906
sS'513149'
p2034
I49
sS'523642'
p2035
I2882
sS'500488'
p2036
I26
sS'500875'
p2037
I1784
sS'ALKALI'
p2038
I131
sS'506559'
p2039
I3571
sS'KOHINOOR'
p2040
I2073
sS'500730'
p2041
I2654
sS'700087'
p2042
I2489
sS'506087'
p2043
I213
sS'SKMEGGPROD'
p2044
I3608
sS'500470'
p2045
I3916
sS'GAYAPROJ'
p2046
I1257
sS'TREADS'
p2047
I4023
sS'513309'
p2048
I150
sS'513307'
p2049
I3861
sS'513305'
p2050
I638
sS'513303'
p2051
I2430
sS'530165'
p2052
I1966
sS'DCMFINSERV'
p2053
I877
sS'530167'
p2054
I2450
sS'530161'
p2055
I1249
sS'530163'
p2056
I2013
sS'530169'
p2057
I2436
sS'BLUEDART'
p2058
I557
sS'KICL'
p2059
I1956
sS'HINDDORROL'
p2060
I1522
sS'SARDAEN'
p2061
I3384
sS'NELCAST'
p2062
I2589
sS'ZFSTEERING'
p2063
I4392
sS'MGOLD'
p2064
I2222
sS'BEML'
p2065
I449
sS'507747'
p2066
I4046
sS'522281'
p2067
I3092
sS'522287'
p2068
I1952
sS'522285'
p2069
I1844
sS'513544'
p2070
I2322
sS'521099'
p2071
I1051
sS'530571'
p2072
I1109
sS'FINCABLES'
p2073
I1156
sS'530577'
p2074
I2137
sS'N100'
p2075
I2532
sS'530579'
p2076
I1327
sS'521097'
p2077
I156
sS'EASTSUGIND'
p2078
I998
sS'517556'
p2079
I3015
sS'517554'
p2080
I2402
sS'517552'
p2081
I74
sS'MMTC'
p2082
I2424
sS'502700'
p2083
I265
sS'502250'
p2084
I2321
sS'519035'
p2085
I4299
sS'514113'
p2086
I64
sS'519248'
p2087
I1918
sS'519242'
p2088
I3387
sS'IDBIGOLD'
p2089
I1576
sS'REMIMETAL'
p2090
I3181
sS'KOTAKPSUBK'
p2091
I2082
sS'526159'
p2092
I2626
sS'ELFORGE'
p2093
I1015
sS'514118'
p2094
I3301
sS'PRAKASHSTL'
p2095
I2938
sS'533180'
p2096
I3512
sS'PILANIINV'
p2097
I2763
sS'531029'
p2098
I500
sS'531027'
p2099
I2172
sS'531025'
p2100
I1625
sS'505890'
p2101
I4295
sS'500259'
p2102
I2214
sS'532638'
p2103
I3504
sS'532633'
p2104
I138
sS'500251'
p2105
I4027
sS'532631'
p2106
I1127
sS'532630'
p2107
I1319
sS'500254'
p2108
I2191
sS'532636'
p2109
I1643
sS'500256'
p2110
I2196
sS'500257'
p2111
I2212
sS'507918'
p2112
I2609
sS'507912'
p2113
I2187
sS'507910'
p2114
I1142
sS'507917'
p2115
I728
sS'RUCHIRA'
p2116
I3255
sS'500034'
p2117
I393
sS'500035'
p2118
I404
sS'500030'
p2119
I347
sS'500031'
p2120
I392
sS'500032'
p2121
I395
sS'505513'
p2122
I3532
sS'500038'
p2123
I411
sS'500039'
p2124
I417
sS'MAHINDFORG'
p2125
I2282
sS'HIMGRANITE'
p2126
I1501
sS'516086'
p2127
I3524
sS'MEDICAPS'
p2128
I2362
sS'VIVIMEDLAB'
p2129
I4270
sS'HNGSNGBEES'
p2130
I1447
sS'530375'
p2131
I185
sS'530377'
p2132
I2628
sS'VARUNSHIP'
p2133
I4189
sS'533543'
p2134
I602
sS'533540'
p2135
I4024
sS'HINDSYNTEX'
p2136
I1509
sS'501343'
p2137
I2465
sS'533452'
p2138
I4311
sS'514304'
p2139
I3312
sS'HATSUN'
p2140
I1443
sS'514300'
p2141
I2888
sS'RMMIL'
p2142
I3036
sS'514308'
p2143
I1449
sS'517300'
p2144
I1400
sS'AIMCOPEST'
p2145
I97
sS'512229'
p2146
I978
sS'LAKSHMIEFL'
p2147
I2142
sS'500387'
p2148
I3508
sS'CLUTCHAUTO'
p2149
I634
sS'533029'
p2150
I131
sS'KRBL'
p2151
I2095
sS'EXCELCROP'
p2152
I1102
sS'PDPL'
p2153
I2819
sS'514162'
p2154
I4318
sS'514167'
p2155
I1240
sS'514165'
p2156
I1657
sS'MAITHANALL'
p2157
I2286
sS'PENNARALUM'
p2158
I2853
sS'532831'
p2159
I35
sS'532830'
p2160
I323
sS'532833'
p2161
I3661
sS'532832'
p2162
I1653
sS'532835'
p2163
I1599
sS'532834'
p2164
I647
sS'532837'
p2165
I2720
sS'532836'
p2166
I1366
sS'532839'
p2167
I948
sS'519491'
p2168
I2689
sS'531568'
p2169
I293
sS'531569'
p2170
I3369
sS'531565'
p2171
I1683
sS'531560'
p2172
I3600
sS'GRINDWELL'
p2173
I1370
sS'PEL'
p2174
I2770
sS'JYOTHYLAB'
p2175
I1919
sS'SINGER'
p2176
I3594
sS'INTLTRAVHS'
p2177
I1760
sS'DECOLIGHT'
p2178
I888
sS'SHREEASHTA'
p2179
I3506
sS'533301'
p2180
I3484
sS'533302'
p2181
I1956
sS'533303'
p2182
I470
sS'533304'
p2183
I636
sS'533305'
p2184
I3701
sS'533306'
p2185
I3773
sS'526705'
p2186
I1027
sS'533309'
p2187
I867
sS'526709'
p2188
I542
sS'PIPAVAVYD'
p2189
I2890
sS'530965'
p2190
I1667
sS'PSMSPGMILL'
p2191
I2982
sS'530967'
p2192
I3925
sS'530961'
p2193
I4228
sS'NEULANDLAB'
p2194
I2606
sS'NESCO'
p2195
I2595
sS'524634'
p2196
I149
sS'524636'
p2197
I3703
sS'507580'
p2198
I1789
sS'524632'
p2199
I3180
sS'STERLINBIO'
p2200
I3729
sS'533047'
p2201
I1666
sS'AIL'
p2202
I4
sS'SREEL'
p2203
I3293
sS'533048'
p2204
I1280
sS'INDIANORG'
p2205
I1589
sS'523475'
p2206
I2202
sS'500228'
p2207
I1911
sS'^IXIC'
p2208
I2553
sS'JSWHL'
p2209
I1798
sS'504580'
p2210
I2247
sS'ASOCALCHOL'
p2211
I316
sS'GENUSPOWER'
p2212
I1274
sS'511072'
p2213
I911
sS'AQUA'
p2214
I228
sS'511074'
p2215
I4310
sS'505729'
p2216
I3594
sS'JAGRAN'
p2217
I1805
sS'505720'
p2218
I1487
sS'505726'
p2219
I1606
sS'505725'
p2220
I1523
sS'3MINDIA'
p2221
I4404
sS'KALYANISHP'
p2222
I3475
sS'CARBORUNIV'
p2223
I660
sS'504058'
p2224
I2635
sS'532794'
p2225
I4381
sS'532795'
p2226
I4343
sS'532796'
p2227
I2208
sS'532797'
p2228
I342
sS'532790'
p2229
I3896
sS'532791'
p2230
I3017
sS'532792'
p2231
I640
sS'523728'
p2232
I3569
sS'523724'
p2233
I4221
sS'532798'
p2234
I2603
sS'532799'
p2235
I109
sS'SUZLON'
p2236
I3838
sS'511728'
p2237
I2123
sS'523620'
p2238
I2871
sS'ENTEGRA'
p2239
I1061
sS'523628'
p2240
I4308
sS'BLUEBIRD'
p2241
I551
sS'SREINFRA'
p2242
I3685
sS'SICAL'
p2243
I3567
sS'CEBBCO'
p2244
I775
sS'AGEEGOLD'
p2245
I3493
sS'LLOYDELENG'
p2246
I2188
sS'532882'
p2247
I2712
sS'DEEPAKNTR'
p2248
I892
sS'JKTYRE'
p2249
I1886
sS'506579'
p2250
I2736
sS'COMPUSOFT'
p2251
I623
sS'500758'
p2252
I3653
sS'513630'
p2253
I3079
sS'KAJARIACER'
p2254
I1945
sS'524396'
p2255
I529
sS'530149'
p2256
I2110
sS'524394'
p2257
I4233
sS'530145'
p2258
I2059
sS'530141'
p2259
I1434
sS'LGBBROSLTD'
p2260
I2167
sS'FMNL'
p2261
I1118
sS'NUCLEUS'
p2262
I2675
sS'SESHAPAPER'
p2263
I3447
sS'KIRLOSELEC'
p2264
I1931
sS'GOODLUCK'
p2265
I1208
sS'EASUNREYRL'
p2266
I1000
sS'531357'
p2267
I2384
sS'AJMERA'
p2268
I102
sS'530555'
p2269
I2812
sS'530557'
p2270
I2579
sS'517530'
p2271
I3819
sS'517534'
p2272
I3839
sS'517536'
p2273
I2717
sS'502271'
p2274
I3042
sS'511243'
p2275
I733
sS'511246'
p2276
I4332
sS'SIMBHSUGAR'
p2277
I3583
sS'519262'
p2278
I2967
sS'519260'
p2279
I3378
sS'CENTURYTEX'
p2280
I690
sS'ZICOM'
p2281
I4393
sS'502180'
p2282
I3509
sS'531795'
p2283
I330
sS'531794'
p2284
I3446
sS'PCJEWELLER'
p2285
I2778
sS'531791'
p2286
I2662
sS'531793'
p2287
I1709
sS'TVSMOTOR'
p2288
I4063
sS'526139'
p2289
I4016
sS'SB&TINTL;'
p2290
I3411
sS'514492'
p2291
I2306
sS'526133'
p2292
I3806
sS'ARVINDREM'
p2293
I3
sS'526137'
p2294
I3486
sS'511395'
p2295
I401
sS'ABGHEAVY'
p2296
I32
sS'VSSL'
p2297
I4151
sS'513687'
p2298
I3665
sS'502986'
p2299
I4187
sS'RPOWER'
p2300
I3174
sS'500233'
p2301
I1945
sS'500231'
p2302
I4083
sS'500236'
p2303
I1969
sS'500234'
p2304
I1946
sS'500235'
p2305
I1957
sS'500238'
p2306
I4330
sS'500239'
p2307
I2024
sS'GAIL'
p2308
I1222
sS'507938'
p2309
I2310
sS'DRBECK'
p2310
I1017
sS'THERMAX'
p2311
I3960
sS'503637'
p2312
I3135
sS'503635'
p2313
I3531
sS'ELPROINTL'
p2314
I1034
sS'524400'
p2315
I1779
sS'524404'
p2316
I2328
sS'524408'
p2317
I4123
sS'GSLNOVA'
p2318
I1377
sS'VASCONEQ'
p2319
I4191
sS'530317'
p2320
I1310
sS'530315'
p2321
I1532
sS'ESCORTS'
p2322
I1078
sS'NANDAN'
p2323
I2549
sS'509162'
p2324
I1634
sS'LINDEINDIA'
p2325
I2127
sS'533569'
p2326
I3700
sS'FALCONTYRE'
p2327
I1126
sS'HARIGCRANK'
p2328
I1453
sS'ASIANELEC'
p2329
I297
sS'ASHOKLEY'
p2330
I289
sS'SAIL'
p2331
I3720
sS'531862'
p2332
I492
sS'513401'
p2333
I281
sS'514360'
p2334
I1429
sS'513403'
p2335
I3818
sS'513405'
p2336
I2853
sS'513406'
p2337
I3063
sS'ARIHANT'
p2338
I244
sS'517326'
p2339
I761
sS'512207'
p2340
I2292
sS'517320'
p2341
I3404
sS'DCBBANK'
p2342
I851
sS'531404'
p2343
I4393
sS'531406'
p2344
I206
sS'531401'
p2345
I2034
sS'531400'
p2346
I140
sS'531402'
p2347
I2213
sS'531409'
p2348
I116
sS'532215'
p2349
I361
sS'ANKITMETAL'
p2350
I7
sS'532216'
p2351
I1473
sS'532210'
p2352
I752
sS'532212'
p2353
I234
sS'FCH'
p2354
I1202
sS'FCL'
p2355
I1155
sS'532218'
p2356
I3648
sS'514183'
p2357
I546
sS'532819'
p2358
I2413
sS'532818'
p2359
I1101
sS'OMKARCHEM'
p2360
I2710
sS'532813'
p2361
I635
sS'532812'
p2362
I4021
sS'532811'
p2363
I90
sS'532810'
p2364
I2928
sS'532817'
p2365
I2738
sS'532816'
p2366
I601
sS'532815'
p2367
I3620
sS'532814'
p2368
I1658
sS'SDBL'
p2369
I3297
sS'531548'
p2370
I3640
sS'531540'
p2371
I2333
sS'531541'
p2372
I357
sS'531543'
p2373
I1878
sS'531544'
p2374
I4210
sS'531547'
p2375
I3981
sS'CHEMFALKAL'
p2376
I715
sS'SAHPETRO'
p2377
I3325
sS'BHARTIARTL'
p2378
I503
sS'MARALOVER'
p2379
I2319
sS'531892'
p2380
I2030
sS'SICAGEN'
p2381
I3566
sS'531897'
p2382
I42
sS'531898'
p2383
I3367
sS'ASIL'
p2384
I169
sS'524184'
p2385
I1428
sS'512169'
p2386
I382
sS'HARIAEXPO'
p2387
I1452
sS'505530'
p2388
I2977
sS'502512'
p2389
I914
sS'522122'
p2390
I4277
sS'530945'
p2391
I1241
sS'530943'
p2392
I3689
sS'526729'
p2393
I1329
sS'526725'
p2394
I3357
sS'MAKE'
p2395
I2229
sS'526727'
p2396
I1247
sS'521113'
p2397
I3762
sS'505893'
p2398
I1526
sS'526723'
p2399
I3145
sS'BFUTILITIE'
p2400
I471
sS'TEXINFRA'
p2401
I3866
sS'NORBTEAEXP'
p2402
I2657
sS'531744'
p2403
I1284
sS'MIC'
p2404
I2391
sS'GRUH'
p2405
I1373
sS'SURYVANSPG'
p2406
I3833
sS'533023'
p2407
I4298
sS'533022'
p2408
I4402
sS'533026'
p2409
I713
sS'INFRABEES'
p2410
I1715
sS'526588'
p2411
I2879
sS'511589'
p2412
I139
sS'530617'
p2413
I3349
sS'526582'
p2414
I4007
sS'526586'
p2415
I4336
sS'511585'
p2416
I3156
sS'590035'
p2417
I3980
sS'590037'
p2418
I3721
sS'590036'
p2419
I1954
sS'590031'
p2420
I3991
sS'590030'
p2421
I3654
sS'590033'
p2422
I227
sS'590032'
p2423
I4382
sS'590038'
p2424
I4267
sS'511726'
p2425
I4247
sS'511724'
p2426
I389
sS'511720'
p2427
I657
sS'504212'
p2428
I4119
sS'PFOCUS'
p2429
I2970
sS'KSBPUMPS'
p2430
I2107
sS'HOVS'
p2431
I1562
sS'504076'
p2432
I1921
sS'509084'
p2433
I2878
sS'505302'
p2434
I2140
sS'KSE'
p2435
I2108
sS'KSL'
p2436
I1957
sS'KSK'
p2437
I2109
sS'532778'
p2438
I2152
sS'532779'
p2439
I4001
sS'532776'
p2440
I3502
sS'532777'
p2441
I2531
sS'532774'
p2442
I40
sS'532775'
p2443
I1380
sS'532772'
p2444
I906
sS'532773'
p2445
I1301
sS'532770'
p2446
I1450
sS'532771'
p2447
I1866
sS'SFCL'
p2448
I3294
sS'WINSOME'
p2449
I4340
sS'512455'
p2450
I2190
sS'GLOBABOARD'
p2451
I1297
sS'505750'
p2452
I1902
sS'PIRHEALTH'
p2453
I2892
sS'523606'
p2454
I3574
sS'BHARATGEAR'
p2455
I494
sS'IDEA'
p2456
I1602
sS'500770'
p2457
I3904
sS'500777'
p2458
I3891
sS'AVANTI'
p2459
I352
sS'524212'
p2460
I4304
sS'524210'
p2461
I2857
sS'DEWANHOUS'
p2462
I911
sS'TIMBOR'
p2463
I3971
sS'524218'
p2464
I248
sS'513611'
p2465
I2895
sS'513613'
p2466
I1825
sS'513349'
p2467
I102
sS'AGSINFO'
p2468
I88
sS'530129'
p2469
I2632
sS'PRETAILDVR'
p2470
I2804
sS'524374'
p2471
I1070
sS'530125'
p2472
I3350
sS'524370'
p2473
I567
sS'530127'
p2474
I2665
sS'524372'
p2475
I2723
sS'519367'
p2476
I4017
sS'501421'
p2477
I3634
sS'501423'
p2478
I3455
sS'501425'
p2479
I569
sS'PEERABASAN'
p2480
I3555
sS'509966'
p2481
I4284
sS'509960'
p2482
I4127
sS'521210'
p2483
I751
sS'512217'
p2484
I4349
sS'HONAUT'
p2485
I1553
sS'512565'
p2486
I3246
sS'517044'
p2487
I1757
sS'CADILAHC'
p2488
I639
sS'517041'
p2489
I72
sS'517514'
p2490
I858
sS'517518'
p2491
I2188
sS'502216'
p2492
I575
sS'502219'
p2493
I581
sS'533212'
p2494
I1290
sS'526967'
p2495
I1480
sS'PUNJABTRAC'
p2496
I3011
sS'526616'
p2497
I2562
sS'AMLSTEEL'
p2498
I170
sS'500189'
p2499
I1514
sS'533216'
p2500
I3934
sS'AMFORGEIND'
p2501
I164
sS'519287'
p2502
I2427
sS'519281'
p2503
I86
sS'LITL'
p2504
I2152
sS'NUCHEM'
p2505
I2674
sS'GANESHBENZ'
p2506
I1238
sS'RUSHIL'
p2507
I3259
sS'KECL'
p2508
I2053
sS'RANEENGINE'
p2509
I3110
sS'507486'
p2510
I659
sS'507488'
p2511
I1306
sS'524378'
p2512
I1892
sS'503031'
p2513
I2851
sS'PUNJCOMMU'
p2514
I3009
sS'OSWALAGRO'
p2515
I2749
sS'500219'
p2516
I1815
sS'500214'
p2517
I1771
sS'500215'
p2518
I87
sS'500210'
p2519
I1719
sS'500211'
p2520
I1730
sS'500212'
p2521
I1739
sS'500213'
p2522
I1760
sS'ASHAPURMIN'
p2523
I277
sS'505797'
p2524
I2416
sS'BASML'
p2525
I423
sS'507265'
p2526
I225
sS'TCIFINANCE'
p2527
I3923
sS'GREENPOWER'
p2528
I2731
sS'531041'
p2529
I779
sS'526445'
p2530
I1695
sS'526117'
p2531
I3485
sS'526443'
p2532
I873
sS'KINETICENG'
p2533
I2043
sS'PANYAMCEM'
p2534
I2806
sS'ORIENTCERA'
p2535
I2730
sS'HBLPOWER'
p2536
I1474
sS'EKC'
p2537
I1098
sS'530337'
p2538
I1107
sS'530331'
p2539
I2954
sS'530333'
p2540
I1042
sS'VIKASWSP'
p2541
I4229
sS'TATAPOWER'
p2542
I3914
sS'509148'
p2543
I1344
sS'NSIL'
p2544
I2548
sS'POLYPLEX'
p2545
I2918
sS'ASHIANA'
p2546
I280
sS'501301'
p2547
I3910
sS'AURANPAPER'
p2548
I334
sS'532482'
p2549
I1352
sS'532184'
p2550
I737
sS'532187'
p2551
I1700
sS'TGBHOTELS'
p2552
I3876
sS'LGBFORGE'
p2553
I2168
sS'532180'
p2554
I917
sS'532183'
p2555
I1258
sS'513422'
p2556
I550
sS'532189'
p2557
I1650
sS'PIONEEREMB'
p2558
I2888
sS'514348'
p2559
I4340
sS'JUBLINDS'
p2560
I1913
sS'504879'
p2561
I2728
sS'RCF'
p2562
I3124
sS'509557'
p2563
I1253
sS'509550'
p2564
I1232
sS'531429'
p2565
I77
sS'531426'
p2566
I3889
sS'JINDCOT'
p2567
I1869
sS'531420'
p2568
I562
sS'JIKIND'
p2569
I1867
sS'532234'
p2570
I2557
sS'MELSTAR'
p2571
I2378
sS'532230'
p2572
I459
sS'531522'
p2573
I3127
sS'506655'
p2574
I3760
sS'531524'
p2575
I1600
sS'531525'
p2576
I45
sS'531528'
p2577
I2235
sS'505576'
p2578
I1323
sS'500057'
p2579
I65
sS'532385'
p2580
I368
sS'532384'
p2581
I4068
sS'500052'
p2582
I488
sS'FOSECOIND'
p2583
I1178
sS'516072'
p2584
I4260
sS'SWIL'
p2585
I3302
sS'532380'
p2586
I380
sS'TNTELE'
p2587
I3893
sS'516078'
p2588
I1915
sS'CCL'
p2589
I668
sS'CCI'
p2590
I637
sS'512481'
p2591
I2921
sS'512487'
p2592
I3076
sS'CLNINDIA'
p2593
I755
sS'512485'
p2594
I920
sS'512489'
p2595
I2687
sS'LAMBODHARA'
p2596
I2128
sS'533344'
p2597
I2997
sS'533340'
p2598
I3413
sS'PATINTLOG'
p2599
I2837
sS'533343'
p2600
I2204
sS'522101'
p2601
I2039
sS'522105'
p2602
I537
sS'530921'
p2603
I1743
sS'530923'
p2604
I2832
sS'530925'
p2605
I3105
sS'BIRLACORPN'
p2606
I532
sS'JINDWORLD'
p2607
I1878
sS'MIRCELECTR'
p2608
I2417
sS'521131'
p2609
I197
sS'530699'
p2610
I3066
sS'521133'
p2611
I1268
sS'511306'
p2612
I2787
sS'UBL'
p2613
I4108
sS'SGFL'
p2614
I3511
sS'DALMIASUG'
p2615
I868
sS'533008'
p2616
I2692
sS'533003'
p2617
I905
sS'533001'
p2618
I3641
sS'533007'
p2619
I2168
sS'533006'
p2620
I533
sS'503776'
p2621
I2433
sS'503772'
p2622
I2426
sS'590018'
p2623
I1543
sS'CILNOVA'
p2624
I738
sS'EXCELINFO'
p2625
I1105
sS'590011'
p2626
I2469
sS'511700'
p2627
I3705
sS'511702'
p2628
I2826
sS'590094'
p2629
I1128
sS'511706'
p2630
I52
sS'532435'
p2631
I294
sS'532430'
p2632
I471
sS'532432'
p2633
I4113
sS'CENTENKA'
p2634
I687
sS'532439'
p2635
I1330
sS'ICICIBANK'
p2636
I1595
sS'531882'
p2637
I2122
sS'UNICHEMLAB'
p2638
I4088
sS'526307'
p2639
I1507
sS'526301'
p2640
I2367
sS'504096'
p2641
I3998
sS'504092'
p2642
I1690
sS'504093'
p2643
I2793
sS'519136'
p2644
I2542
sS'BAJAJHIND'
p2645
I395
sS'523768'
p2646
I1389
sS'532758'
p2647
I2020
sS'532759'
p2648
I326
sS'IFBAGRO'
p2649
I1605
sS'532751'
p2650
I1000
sS'ASAHIINDIA'
p2651
I273
sS'532754'
p2652
I1308
sS'532755'
p2653
I3929
sS'532756'
p2654
I2282
sS'532757'
p2655
I4280
sS'BSTRANSCOM'
p2656
I604
sS'JUNIORBEES'
p2657
I1799
sS'WADALACOM'
p2658
I4299
sS'PENIND'
p2659
I2854
sS'HDFCBANK'
p2660
I1477
sS'POLARIND'
p2661
I2907
sS'QNIFTY'
p2662
I3024
sS'514087'
p2663
I2843
sS'506532'
p2664
I2647
sS'506530'
p2665
I2009
sS'MOTILALOFS'
p2666
I2461
sS'506820'
p2667
I324
sS'506822'
p2668
I2471
sS'JINDALPOLY'
p2669
I1874
sS'505324'
p2670
I2317
sS'500790'
p2671
I2596
sS'505320'
p2672
I2215
sS'524230'
p2673
I3124
sS'524232'
p2674
I2272
sS'524238'
p2675
I1401
sS'LAKPRE'
p2676
I2146
sS'PANCHSHEEL'
p2677
I2759
sS'523888'
p2678
I4283
sS'500460'
p2679
I2483
sS'513369'
p2680
I3083
sS'ARAVALISEC'
p2681
I229
sS'523886'
p2682
I2393
sS'513361'
p2683
I1648
sS'531266'
p2684
I4161
sS'530109'
p2685
I4180
sS'506109'
p2686
I1271
sS'SIMPLEX'
p2687
I3589
sS'MANDHANA'
p2688
I2301
sS'SHRIDINESH'
p2689
I3543
sS'504673'
p2690
I4122
sS'517288'
p2691
I1414
sS'509945'
p2692
I3953
sS'BINDALAGRO'
p2693
I2750
sS'NOVOPANIND'
p2694
I2664
sS'TUTICORALK'
p2695
I4057
sS'512018'
p2696
I764
sS'PRADIP'
p2697
I2933
sS'512017'
p2698
I1106
sS'517063'
p2699
I1860
sS'RAJOIL'
p2700
I3064
sS'GREENLAM'
p2701
I1213
sS'MAGNUM'
p2702
I2260
sS'514274'
p2703
I23
sS'524824'
p2704
I400
sS'524826'
p2705
I1916
sS'524820'
p2706
I2792
sS'524828'
p2707
I2233
sS'519285'
p2708
I3900
sS'SURANAT&P;'
p2709
I3819
sS'JAIBALAJI'
p2710
I1809
sS'ALLCARGO'
p2711
I135
sS'GEODESIC'
p2712
I1275
sS'507468'
p2713
I3535
sS'520021'
p2714
I2704
sS'530025'
p2715
I2361
sS'RUPA'
p2716
I3257
sS'526683'
p2717
I1556
sS'521105'
p2718
I2701
sS'526681'
p2719
I3330
sS'526687'
p2720
I2910
sS'526689'
p2721
I1138
sS'INDIASEC'
p2722
I1647
sS'INDUSINDBK'
p2723
I1700
sS'503015'
p2724
I2428
sS'500890'
p2725
I2432
sS'526735'
p2726
I92
sS'DATAMATICS'
p2727
I871
sS'526887'
p2728
I1681
sS'507205'
p2729
I3970
sS'504966'
p2730
I3977
sS'GAEL'
p2731
I1386
sS'JSL'
p2732
I1908
sS'PARABDRUGS'
p2733
I2809
sS'530487'
p2734
I4212
sS'526468'
p2735
I1091
sS'526465'
p2736
I3048
sS'526463'
p2737
I4079
sS'PRESTIGE'
p2738
I2964
sS'MARG'
p2739
I2324
sS'501144'
p2740
I2858
sS'DUNLOP'
p2741
I976
sS'501148'
p2742
I866
sS'VIJAYABANK'
p2743
I4224
sS'500092'
p2744
I829
sS'500093'
p2745
I830
sS'500096'
p2746
I860
sS'500097'
p2747
I868
sS'519097'
p2748
I3212
sS'TRENT'
p2749
I4027
sS'HIL'
p2750
I1439
sS'LAKSHMIFIN'
p2751
I2143
sS'514414'
p2752
I2758
sS'514412'
p2753
I3394
sS'531199'
p2754
I1292
sS'531198'
p2755
I4197
sS'531196'
p2756
I1221
sS'531194'
p2757
I2388
sS'MSPL'
p2758
I2478
sS'531192'
p2759
I317
sS'531191'
p2760
I1149
sS'531190'
p2761
I348
sS'532131'
p2762
I4041
sS'519307'
p2763
I4229
sS'GRAVITA'
p2764
I1359
sS'NAVNETPUBL'
p2765
I2574
sS'BIMETAL'
p2766
I521
sS'533221'
p2767
I302
sS'531449'
p2768
I1371
sS'531448'
p2769
I253
sS'532841'
p2770
I3329
sS'SRSREAL'
p2771
I3701
sS'500630'
p2772
I1082
sS'523415'
p2773
I816
sS'BALURTRANS'
p2774
I412
sS'531444'
p2775
I3745
sS'531447'
p2776
I1731
sS'532259'
p2777
I216
sS'532254'
p2778
I2909
sS'532256'
p2779
I2548
sS'531508'
p2780
I1094
sS'531509'
p2781
I3728
sS'531505'
p2782
I1637
sS'531506'
p2783
I3557
sS'531500'
p2784
I3078
sS'531502'
p2785
I1075
sS'512285'
p2786
I4373
sS'CAIRN'
p2787
I640
sS'NISSAN'
p2788
I2641
sS'OCL'
p2789
I2691
sS'516016'
p2790
I3538
sS'JVLAGRO'
p2791
I1918
sS'513005'
p2792
I4193
sS'MOTHERSUMI'
p2793
I2460
sS'YUKENINDIA'
p2794
I4372
sS'IFL'
p2795
I1640
sS'530715'
p2796
I147
sS'SAGCEM'
p2797
I3323
sS'530711'
p2798
I1802
sS'530719'
p2799
I1615
sS'TATAELXSI'
p2800
I3908
sS'522163'
p2801
I939
sS'505930'
p2802
I4258
sS'522165'
p2803
I1696
sS'521151'
p2804
I921
sS'MPSLTD'
p2805
I2474
sS'517496'
p2806
I3200
sS'530909'
p2807
I1074
sS'530677'
p2808
I3808
sS'517498'
p2809
I4309
sS'500133'
p2810
I1076
sS'511549'
p2811
I2452
sS'MOHITIND'
p2812
I2231
sS'511543'
p2813
I1375
sS'519560'
p2814
I2588
sS'MUKANDENGG'
p2815
I2482
sS'GONTERPEIP'
p2816
I1335
sS'519566'
p2817
I3592
sS'VINCARDS'
p2818
I4238
sS'KOPRAN'
p2819
I2077
sS'CUBEXTUB'
p2820
I834
sS'590079'
p2821
I1901
sS'590078'
p2822
I2286
sS'504258'
p2823
I2141
sS'526093'
p2824
I3399
sS'590071'
p2825
I3783
sS'590070'
p2826
I3044
sS'504256'
p2827
I898
sS'590072'
p2828
I3781
sS'590075'
p2829
I2149
sS'590074'
p2830
I2744
sS'590077'
p2831
I3115
sS'590076'
p2832
I650
sS'511768'
p2833
I2341
sS'511760'
p2834
I2079
sS'511766'
p2835
I2504
sS'511764'
p2836
I4128
sS'507260'
p2837
I2756
sS'CENTRALBK'
p2838
I681
sS'532419'
p2839
I3616
sS'532418'
p2840
I186
sS'532417'
p2841
I994
sS'532416'
p2842
I2611
sS'532414'
p2843
I1616
sS'532413'
p2844
I692
sS'532411'
p2845
I4255
sS'532410'
p2846
I4014
sS'DHAMPURSUG'
p2847
I915
sS'526325'
p2848
I2734
sS'532732'
p2849
I2021
sS'532733'
p2850
I3779
sS'532730'
p2851
I3740
sS'532731'
p2852
I3220
sS'532736'
p2853
I2930
sS'532737'
p2854
I1043
sS'532734'
p2855
I1311
sS'532735'
p2856
I3040
sS'532738'
p2857
I3897
sS'532739'
p2858
I2902
sS'523780'
p2859
I3119
sS'523782'
p2860
I903
sS'JDORGOCHEM'
p2861
I1856
sS'507690'
p2862
I2729
sS'TORRENTCAB'
p2863
I3998
sS'SOBHA'
p2864
I3623
sS'MEGASOFT'
p2865
I2373
sS'ADVANIHOTR'
p2866
I75
sS'531295'
p2867
I3238
sS'SYNCOM'
p2868
I3858
sS'531293'
p2869
I2940
sS'500408'
p2870
I3908
sS'500405'
p2871
I3811
sS'500404'
p2872
I3787
sS'500407'
p2873
I3847
sS'505693'
p2874
I968
sS'532081'
p2875
I1934
sS'500403'
p2876
I3786
sS'532083'
p2877
I3546
sS'532892'
p2878
I2461
sS'524788'
p2879
I1021
sS'VTMLTD'
p2880
I4149
sS'YESBANK'
p2881
I4370
sS'512463'
p2882
I3513
sS'FTCPOF5YDV'
p2883
I1183
sS'532896'
p2884
I2260
sS'GARWALLROP'
p2885
I1253
sS'ICSA'
p2886
I1600
sS'505343'
p2887
I2446
sS'TCPLTD'
p2888
I3879
sS'526113'
p2889
I4100
sS'SHRIYAMSEC'
p2890
I3473
sS'VARUN'
p2891
I4188
sS'533427'
p2892
I4275
sS'GUJSTATFIN'
p2893
I1419
sS'526115'
p2894
I1980
sS'CMAHENDRA'
p2895
I636
sS'VISAKAIND'
p2896
I4254
sS'524330'
p2897
I1842
sS'524332'
p2898
I505
sS'524336'
p2899
I3514
sS'SUNPHARMA'
p2900
I3777
sS'WELSPUNIND'
p2901
I4318
sS'MRO-TEK'
p2902
I2476
sS'FTCPOF3YGR'
p2903
I1195
sS'CHOLAFIN'
p2904
I733
sS'SHREEKRPOL'
p2905
I3303
sS'506803'
p2906
I1198
sS'ZUARIAGRO'
p2907
I4398
sS'506808'
p2908
I4057
sS'LUMAXAUTO'
p2909
I2209
sS'517264'
p2910
I1153
sS'509692'
p2911
I1660
sS'MODILUFT'
p2912
I3672
sS'509695'
p2913
I913
sS'PGEL'
p2914
I2767
sS'CIMMCO'
p2915
I740
sS'512036'
p2916
I1977
sS'GINNIFILA'
p2917
I1285
sS'512529'
p2918
I2881
sS'517001'
p2919
I536
sS'512527'
p2920
I3799
sS'SOUISPAT'
p2921
I3650
sS'520149'
p2922
I2252
sS'520145'
p2923
I1125
sS'COX&KINGS;'
p2924
I817
sS'520141'
p2925
I3565
sS'CAMLIN'
p2926
I648
sS'MADRASFERT'
p2927
I2249
sS'524808'
p2928
I2880
sS'524804'
p2929
I337
sS'506113'
p2930
I2174
sS'APPLEIND'
p2931
I224
sS'MANALIPETC'
p2932
I2299
sS'507190'
p2933
I2089
sS'507446'
p2934
I3583
sS'RAMSARUP'
p2935
I3104
sS'505978'
p2936
I4040
sS'526668'
p2937
I1962
sS'526666'
p2938
I504
sS'526662'
p2939
I3074
sS'507998'
p2940
I3584
sS'503691'
p2941
I3327
sS'503699'
p2942
I1275
sS'526409'
p2943
I1953
sS'SANGAMIND'
p2944
I3361
sS'JUBLFOOD'
p2945
I1912
sS'526403'
p2946
I3155
sS'526407'
p2947
I3213
sS'METKORE'
p2948
I2223
sS'CORPBANK'
p2949
I808
sS'PONDYOXIDE'
p2950
I2922
sS'GULFOILCOR'
p2951
I1425
sS'530763'
p2952
I608
sS'511377'
p2953
I2376
sS'JAYNECOIND'
p2954
I1844
sS'532444'
p2955
I3880
sS'BPLENGG'
p2956
I584
sS'GSS'
p2957
I1379
sS'TITAN'
p2958
I3988
sS'SHREDIGCEM'
p2959
I3509
sS'TIL'
p2960
I3968
sS'GSL'
p2961
I1376
sS'505590'
p2962
I3417
sS'505592'
p2963
I3536
sS'SASKEN'
p2964
I3396
sS'IPAPPM'
p2965
I1581
sS'GULFCORP'
p2966
I1209
sS'514470'
p2967
I4339
sS'RAJSREESUG'
p2968
I3087
sS'RELIGAREGO'
p2969
I3177
sS'KHAITANELE'
p2970
I2028
sS'GULPOLY'
p2971
I1211
sS'BHARATFORG'
p2972
I493
sS'JSWISPAT'
p2973
I1910
sS'VAIBHAVGEM'
p2974
I4166
sS'531463'
p2975
I310
sS'SAMBHAAV'
p2976
I3346
sS'531460'
p2977
I795
sS'531467'
p2978
I2919
sS'531465'
p2979
I2659
sS'532271'
p2980
I843
sS'TDPOWERSYS'
p2981
I3928
sS'532276'
p2982
I3859
sS'532275'
p2983
I2154
sS'532274'
p2984
I3025
sS'UPERGANGES'
p2985
I4129
sS'KINETICMOT'
p2986
I2044
sS'SMARTLINK'
p2987
I3616
sS'US64BONDS'
p2988
I4138
sS'ARSBONDS'
p2989
I255
sS'GSPL'
p2990
I1420
sS'506618'
p2991
I3008
sS'514296'
p2992
I1686
sS'514298'
p2993
I1736
sS'506615'
p2994
I105
sS'OSWALMIN'
p2995
I2752
sS'516038'
p2996
I3638
sS'516032'
p2997
I3385
sS'516030'
p2998
I4364
sS'MOTOGENFIN'
p2999
I2465
sS'PODARPIGMT'
p3000
I2905
sS'513023'
p3001
I2570
sS'530735'
p3002
I3796
sS'ORIENTALTL'
p3003
I2738
sS'SUNFLAG'
p3004
I3787
sS'RELINFRA'
p3005
I3168
sS'NITINSPIN'
p3006
I2646
sS'519214'
p3007
I4334
sS'522142'
p3008
I3932
sS'530657'
p3009
I1300
sS'533389'
p3010
I3490
sS'530655'
p3011
I1336
sS'521178'
p3012
I3695
sS'530651'
p3013
I3625
sS'521174'
p3014
I251
sS'521176'
p3015
I1242
sS'533385'
p3016
I2532
sS'512191'
p3017
I3018
sS'531750'
p3018
I1052
sS'512199'
p3019
I803
sS'509486'
p3020
I658
sS'531752'
p3021
I4316
sS'504960'
p3022
I3738
sS'504961'
p3023
I3920
sS'WINSOMEDJ'
p3024
I4292
sS'509488'
p3025
I1353
sS'506528'
p3026
I2008
sS'DELTACORP'
p3027
I895
sS'MILTONPLAS'
p3028
I2408
sS'CHAMBLFERT'
p3029
I700
sS'519500'
p3030
I544
sS'505817'
p3031
I894
sS'506525'
p3032
I1972
sS'507050'
p3033
I444
sS'503229'
p3034
I3590
sS'503738'
p3035
I1376
sS'511740'
p3036
I2375
sS'511742'
p3037
I729
sS'TIJARIA'
p3038
I3867
sS'SAMBANDAM'
p3039
I3345
sS'523236'
p3040
I3537
sS'523230'
p3041
I1827
sS'523232'
p3042
I796
sS'532479'
p3043
I1781
sS'532478'
p3044
I4107
sS'532470'
p3045
I2342
sS'532475'
p3046
I226
sS'532477'
p3047
I4093
sS'531925'
p3048
I3468
sS'531923'
p3049
I916
sS'KALPATPOWR'
p3050
I1952
sS'GREENFIRE'
p3051
I1206
sS'531928'
p3052
I1324
sS'531929'
p3053
I1721
sS'526347'
p3054
I1035
sS'532718'
p3055
I2942
sS'532719'
p3056
I545
sS'532714'
p3057
I2003
sS'532715'
p3058
I1287
sS'532716'
p3059
I1282
sS'532717'
p3060
I1685
sS'532710'
p3061
I3320
sS'532711'
p3062
I3790
sS'532712'
p3063
I3165
sS'519174'
p3064
I279
sS'GESHIP'
p3065
I1361
sS'504345'
p3066
I3344
sS'CORAL-HUB'
p3067
I798
sS'590053'
p3068
I1979
sS'590051'
p3069
I3334
sS'590050'
p3070
I833
sS'590057'
p3071
I2658
sS'590056'
p3072
I3340
sS'590055'
p3073
I2920
sS'505212'
p3074
I1819
sS'SEINV'
p3075
I3275
sS'590059'
p3076
I516
sS'590058'
p3077
I3505
sS'500427'
p3078
I4089
sS'500426'
p3079
I4087
sS'500425'
p3080
I161
sS'500423'
p3081
I4062
sS'500422'
p3082
I4012
sS'500420'
p3083
I4000
sS'500429'
p3084
I4095
sS'500336'
p3085
I3824
sS'NESTLEIND'
p3086
I2596
sS'JOCIL'
p3087
I1895
sS'MADHURFOOD'
p3088
I2243
sS'505368'
p3089
I3191
sS'514045'
p3090
I607
sS'524276'
p3091
I972
sS'524270'
p3092
I4002
sS'FMGOETZE'
p3093
I1136
sS'SMLISUZU'
p3094
I3618
sS'524654'
p3095
I2569
sS'PEACOCKIND'
p3096
I2845
sS'533408'
p3097
I538
sS'533407'
p3098
I738
sS'532181'
p3099
I1407
sS'533402'
p3100
I1727
sS'533401'
p3101
I3442
sS'533400'
p3102
I1203
sS'DISHTV'
p3103
I948
sS'524310'
p3104
I4194
sS'524314'
p3105
I1421
sS'509715'
p3106
I1839
sS'506863'
p3107
I3844
sS'INDLMETER'
p3108
I1620
sS'506867'
p3109
I2339
sS'WIMPLAST'
p3110
I4336
sS'517246'
p3111
I437
sS'INDOTECH'
p3112
I1685
sS'KOTHARIPRO'
p3113
I2088
sS'519373'
p3114
I4232
sS'JUMBO'
p3115
I1915
sS'PRAGBOSIMI'
p3116
I2934
sS'OMNITECH'
p3117
I2712
sS'526500'
p3118
I3730
sS'ROHITFERRO'
p3119
I3220
sS'509675'
p3120
I1571
sS'523592'
p3121
I1858
sS'523594'
p3122
I2116
sS'523596'
p3123
I1777
sS'523598'
p3124
I3492
sS'RECLTD'
p3125
I3258
sS'523844'
p3126
I1766
sS'523842'
p3127
I3802
sS'523840'
p3128
I1726
sS'COMPUAGE'
p3129
I780
sS'521226'
p3130
I4099
sS'512505'
p3131
I2368
sS'521228'
p3132
I3919
sS'506285'
p3133
I435
sS'ENERGYDEV'
p3134
I1053
sS'526604'
p3135
I2184
sS'HINDZINC'
p3136
I1534
sS'531719'
p3137
I477
sS'531715'
p3138
I3559
sS'531717'
p3139
I4219
sS'531716'
p3140
I3202
sS'531713'
p3141
I560
sS'531712'
p3142
I3043
sS'BHAGWATIHO'
p3143
I480
sS'502901'
p3144
I1831
sS'533244'
p3145
I1598
sS'526642'
p3146
I2419
sS'526640'
p3147
I3239
sS'522080'
p3148
I4287
sS'522085'
p3149
I3742
sS'533248'
p3150
I1413
sS'522087'
p3151
I3769
sS'BSLGOLDETF'
p3152
I538
sS'SPENTEX'
p3153
I3669
sS'TIIL '
p3154
I3933
sS'526423'
p3155
I2102
sS'PETRONET'
p3156
I2864
sS'524488'
p3157
I3842
sS'524480'
p3158
I3201
sS'524484'
p3159
I4011
sS'523242'
p3160
I2575
sS'TATACHEM'
p3161
I3904
sS'511359'
p3162
I53
sS'511357'
p3163
I1941
sS'511355'
p3164
I1638
sS'ABCIL'
p3165
I65
sS'532660'
p3166
I4270
sS'500850'
p3167
I1662
sS'GOKEX'
p3168
I1319
sS'532480'
p3169
I133
sS'INDRAMEDCO'
p3170
I1694
sS'532953'
p3171
I4160
sS'AMTEKINDIA'
p3172
I179
sS'523062'
p3173
I1880
sS'532483'
p3174
I653
sS'FINANTECH'
p3175
I1152
sS'HMT'
p3176
I1551
sS'NATNLSTEEL'
p3177
I2564
sS'532485'
p3178
I410
sS'DLF'
p3179
I954
sS'515059'
p3180
I2244
sS'LOGIXMICRO'
p3181
I2194
sS'CREST'
p3182
I632
sS'INDIALEASE'
p3183
I1644
sS'514450'
p3184
I2263
sS'FIRSTLEASE'
p3185
I1161
sS'514454'
p3186
I3651
sS'531521'
p3187
I904
sS'FRLDVR'
p3188
I1117
sS'UMESLTD'
p3189
I4132
sS'531489'
p3190
I696
sS'523457'
p3191
I566
sS'531486'
p3192
I1148
sS'531481'
p3193
I467
sS'506457'
p3194
I1391
sS'IPRINGLTD'
p3195
I1772
sS'532299'
p3196
I3943
sS'532298'
p3197
I4388
sS'500672'
p3198
I2663
sS'500670'
p3199
I1409
sS'532296'
p3200
I1295
sS'500676'
p3201
I1293
sS'532290'
p3202
I547
sS'500674'
p3203
I353
sS'UCALFUEL'
p3204
I4076
sS'RML'
p3205
I3112
sS'TRIL'
p3206
I4015
sS'BBL'
p3207
I490
sS'513228'
p3208
I2854
sS'513599'
p3209
I1521
sS'513597'
p3210
I3817
sS'TRANSCHEM'
p3211
I4012
sS'530281'
p3212
I3022
sS'530282'
p3213
I3879
sS'530283'
p3214
I4397
sS'530289'
p3215
I3657
sS'500510'
p3216
I2156
sS'GHCL'
p3217
I1279
sS'518017'
p3218
I754
sS'518011'
p3219
I2006
sS'STEELCOGUJ'
p3220
I3726
sS'ROLATAN'
p3221
I3222
sS'SOMDUTTFIN'
p3222
I3636
sS'500042'
p3223
I431
sS'MANAPPURAM'
p3224
I2300
sS'GEINDSYS'
p3225
I1267
sS'513043'
p3226
I3077
sS'SURYAROSNI'
p3227
I3824
sS'20MICRONS'
p3228
I4402
sS'530759'
p3229
I3734
sS'524109'
p3230
I1937
sS'524103'
p3231
I2180
sS'530755'
p3232
I801
sS'CASTROL'
p3233
I664
sS'632149'
p3234
I4360
sS'530631'
p3235
I3227
sS'530635'
p3236
I3951
sS'KIRLOSBROS'
p3237
I2052
sS'WONDERLA'
p3238
I4291
sS'INFRATEL'
p3239
I1585
sS'511503'
p3240
I3860
sS'511501'
p3241
I489
sS'511507'
p3242
I4134
sS'511505'
p3243
I655
sS'511509'
p3244
I4271
sS'523660'
p3245
I4307
sS'512311'
p3246
I3813
sS'519528'
p3247
I2657
sS'512319'
p3248
I3084
sS'523218'
p3249
I2040
sS'532905'
p3250
I3314
sS'DQE'
p3251
I963
sS'532907'
p3252
I1617
sS'532906'
p3253
I2295
sS'532457'
p3254
I1427
sS'532456'
p3255
I780
sS'532903'
p3256
I924
sS'532902'
p3257
I789
sS'532459'
p3258
I333
sS'532909'
p3259
I1350
sS'532908'
p3260
I3474
sS'DSKULKARNI'
p3261
I969
sS'LOVABLE'
p3262
I2204
sS'531901'
p3263
I3315
sS'531902'
p3264
I1143
sS'531904'
p3265
I1985
sS'MOLDTKPAC'
p3266
I2228
sS'531909'
p3267
I2379
sS'JKUDYOG'
p3268
I1887
sS'VENLONPOLY'
p3269
I4203
sS'501242'
p3270
I3923
sS'GVKPIL'
p3271
I1433
sS'VENUSREM'
p3272
I4205
sS'500440'
p3273
I1510
sS'505163'
p3274
I4392
sS'500444'
p3275
I4325
sS'500446'
p3276
I663
sS'500449'
p3277
I1530
sS'500448'
p3278
I1535
sS'ABHISHEK'
p3279
I35
sS'526365'
p3280
I3561
sS'526367'
p3281
I1239
sS'TIRUMALCHM'
p3282
I3964
sS'DUNCANSLTD'
p3283
I845
sS'504382'
p3284
I3591
sS'503863'
p3285
I3517
sS'504380'
p3286
I4234
sS'533469'
p3287
I535
sS'SAYAJHOTEL'
p3288
I3410
sS'533462'
p3289
I3939
sS'INERTIAIND'
p3290
I2406
sS'SPICELEC'
p3291
I3667
sS'IMPEXFERRO'
p3292
I1621
sS'ALSTOMT&D;'
p3293
I2
sS'ZEENEWS'
p3294
I4381
sS'JASCHIND'
p3295
I1834
sS'514028'
p3296
I3082
sS'500143'
p3297
I2869
sS'517224'
p3298
I3766
sS'BOROGLASS'
p3299
I581
sS'SUNILHITEC'
p3300
I3790
sS'531346'
p3301
I999
sS'531344'
p3302
I792
sS'531343'
p3303
I1244
sS'531340'
p3304
I462
sS'MODIPON'
p3305
I2433
sS'531349'
p3306
I2791
sS'532336'
p3307
I428
sS'532334'
p3308
I1470
sS'532335'
p3309
I158
sS'532332'
p3310
I839
sS'532333'
p3311
I1472
sS'532330'
p3312
I530
sS'532331'
p3313
I99
sS'PIIND'
p3314
I2882
sS'523862'
p3315
I930
sS'513691'
p3316
I1894
sS'532338'
p3317
I4176
sS'532339'
p3318
I781
sS'CRISIL'
p3319
I829
sS'KSOILS'
p3320
I2106
sS'512075'
p3321
I3757
sS'TINPLATE'
p3322
I3977
sS'MADHUCON'
p3323
I2241
sS'522108'
p3324
I4372
sS'RADICO'
p3325
I3047
sS'KABRAEXTRU'
p3326
I1937
sS'531737'
p3327
I2326
sS'531733'
p3328
I385
sS'531731'
p3329
I2119
sS'NITINFIRE'
p3330
I2645
sS'EVERESTIND'
p3331
I1097
sS'531739'
p3332
I1272
sS'531738'
p3333
I3576
sS'506159'
p3334
I2808
sS'MAXWELL'
p3335
I2350
sS'508922'
p3336
I3709
sS'508929'
p3337
I1903
sS'507405'
p3338
I4261
sS'507155'
p3339
I1803
sS'507150'
p3340
I1649
sS'IL&FSTRANS;'
p3341
I1619
sS'530697'
p3342
I2585
sS'526991'
p3343
I327
sS'526622'
p3344
I2507
sS'530695'
p3345
I2972
sS'533269'
p3346
I4297
sS'533268'
p3347
I3425
sS'533267'
p3348
I654
sS'526628'
p3349
I103
sS'533265'
p3350
I1229
sS'533264'
p3351
I1024
sS'533263'
p3352
I2731
sS'533262'
p3353
I3102
sS'533261'
p3354
I1073
sS'533260'
p3355
I661
sS'533266'
p3356
I3936
sS'PTL'
p3357
I2999
sS'UTVSOF'
p3358
I4143
sS'526193'
p3359
I3236
sS'PTC'
p3360
I2998
sS'526195'
p3361
I2593
sS'MUNJALAU'
p3362
I2496
sS'504176'
p3363
I1494
sS'MARICO'
p3364
I2325
sS'HINDMOTORS'
p3365
I1528
sS'511333'
p3366
I4273
sS'ORGINFO'
p3367
I2725
sS'500878'
p3368
I672
sS'500870'
p3369
I664
sS'FULFORD'
p3370
I1198
sS'500877'
p3371
I223
sS'TRITON'
p3372
I4039
sS'INDSWFTLTD'
p3373
I1632
sS'DAAWAT'
p3374
I2206
sS'519039'
p3375
I4244
sS'523001'
p3376
I2987
sS'523007'
p3377
I207
sS'519031'
p3378
I3454
sS'BALPHARMA'
p3379
I400
sS'ROYALCUSHN'
p3380
I3236
sS'515030'
p3381
I273
sS'515037'
p3382
I2502
sS'515035'
p3383
I446
sS'531135'
p3384
I3311
sS'531134'
p3385
I1458
sS'531137'
p3386
I1270
sS'531131'
p3387
I2337
sS'531130'
p3388
I2431
sS'500388'
p3389
I3516
sS'500389'
p3390
I3581
sS'532105'
p3391
I2372
sS'500380'
p3392
I1883
sS'532106'
p3393
I3157
sS'500386'
p3394
I3466
sS'532100'
p3395
I1679
sS'500384'
p3396
I586
sS'532102'
p3397
I3412
sS'GEMSPIN'
p3398
I1268
sS'500126'
p3399
I2383
sS'500655'
p3400
I1251
sS'500124'
p3401
I965
sS'500125'
p3402
I1009
sS'500650'
p3403
I1104
sS'500123'
p3404
I1017
sS'500120'
p3405
I938
sS'523477'
p3406
I1398
sS'ELGIRUBCO'
p3407
I1030
sS'500128'
p3408
I1023
sS'ZENSARTECH'
p3409
I4390
sS'501833'
p3410
I735
sS'501831'
p3411
I766
sS'GREAVESCOT'
p3412
I1363
sS'TARAPUR'
p3413
I3901
sS'GAMMONIND'
p3414
I1232
sS'SAMTELTD'
p3415
I3353
sS'ORIENTREF'
p3416
I2683
sS'506041'
p3417
I2278
sS'518075'
p3418
I3814
sS'513063'
p3419
I4010
sS'RAMCOCEM'
p3420
I3030
sS'530777'
p3421
I1714
sS'530771'
p3422
I2064
sS'530773'
p3423
I1791
sS'530779'
p3424
I985
sS'524129'
p3425
I4241
sS'BSLNIFTY'
p3426
I539
sS'SHREERAMA'
p3427
I3527
sS'530619'
p3428
I296
sS'509874'
p3429
I3461
sS'530611'
p3430
I3747
sS'SHREYANIND'
p3431
I3538
sS'NCLIND'
p3432
I2578
sS'530615'
p3433
I1246
sS'MANGALAM'
p3434
I2304
sS'AXISCADES'
p3435
I15
sS'SEZALGLASS'
p3436
I3449
sS'METALPIPE'
p3437
I2386
sS'504920'
p3438
I3302
sS'SOMANYCERA'
p3439
I3640
sS'GRANULES'
p3440
I1352
sS'511525'
p3441
I3306
sS'511523'
p3442
I2650
sS'512332'
p3443
I531
sS'VMART'
p3444
I4154
sS'PRAENG'
p3445
I2936
sS'BANARISUG'
p3446
I424
sS'WOPOLIN'
p3447
I4350
sS'NATHBIOGEN'
p3448
I2527
sS'531692'
p3449
I2035
sS'531693'
p3450
I3544
sS'531694'
p3451
I3060
sS'531695'
p3452
I936
sS'531699'
p3453
I3798
sS'BRIGHTBROS'
p3454
I596
sS'SCHNEIDER'
p3455
I3281
sS'523277'
p3456
I1432
sS'FSL '
p3457
I1163
sS'TRANSPEK'
p3458
I4019
sS'532929'
p3459
I595
sS'532928'
p3460
I4015
sS'532927'
p3461
I1002
sS'532926'
p3462
I1919
sS'532925'
p3463
I1991
sS'532924'
p3464
I2074
sS'532923'
p3465
I3185
sS'532922'
p3466
I1005
sS'532921'
p3467
I2495
sS'532920'
p3468
I1047
sS'ULTRACEMCO'
p3469
I4082
sS'531968'
p3470
I1682
sS'531962'
p3471
I4173
sS'531963'
p3472
I4120
sS'531960'
p3473
I1872
sS'GEMINI'
p3474
I1269
sS'ANGIND'
p3475
I192
sS'TAJGVK'
p3476
I3883
sS'590097'
p3477
I2080
sS'590096'
p3478
I2185
sS'590095'
p3479
I1215
sS'522275'
p3480
I238
sS'522273'
p3481
I93
sS'590091'
p3482
I4035
sS'590090'
p3483
I2693
sS'522279'
p3484
I3398
sS'OMAXE'
p3485
I2705
sS'521064'
p3486
I4032
sS'521062'
p3487
I2607
sS'521068'
p3488
I1544
sS'500469'
p3489
I1135
sS'500463'
p3490
I84
sS'505141'
p3491
I3422
sS'ESABINDIA'
p3492
I1076
sS'500467'
p3493
I1459
sS'500465'
p3494
I4189
sS'500464'
p3495
I4076
sS'JAYBARMARU'
p3496
I1837
sS'524727'
p3497
I3658
sS'508486'
p3498
I1468
sS'524723'
p3499
I517
sS'PNBGILTS'
p3500
I2903
sS'533193'
p3501
I2053
sS'533192'
p3502
I2000
sS'526381'
p3503
I2837
sS'512479'
p3504
I1259
sS'COMPACDISC'
p3505
I778
sS'532866'
p3506
I3026
sS'PRITHVI'
p3507
I2978
sS'SHREEKRPET'
p3508
I3301
sS'533444'
p3509
I3971
sS'LIBERTSHOE'
p3510
I2170
sS'BAJAJTEMPO'
p3511
I1173
sS'RANEHOLDIN'
p3512
I3111
sS'MORGANSTAN'
p3513
I2455
sS'PFC '
p3514
I2928
sS'530187'
p3515
I325
sS'530185'
p3516
I3821
sS'NIFETF'
p3517
I2521
sS'CERA'
p3518
I691
sS'TANLA'
p3519
I3896
sS'AHLWEST'
p3520
I302
sS'517208'
p3521
I1558
sS'CREWBOS'
p3522
I828
sS'SPMLINFRA'
p3523
I3676
sS'517201'
p3524
I3853
sS'517206'
p3525
I2210
sS'509631'
p3526
I1481
sS'509635'
p3527
I1518
sS'POCHIRAJU '
p3528
I2904
sS'IBWSL'
p3529
I1655
sS'MMFL'
p3530
I2422
sS'SBIN'
p3531
I3715
sS'531363'
p3532
I1986
sS'531364'
p3533
I4391
sS'531365'
p3534
I2545
sS'531366'
p3535
I2072
sS'531367'
p3536
I957
sS'AKZOINDIA'
p3537
I112
sS'532310'
p3538
I3527
sS'532311'
p3539
I4058
sS'532312'
p3540
I1277
sS'532313'
p3541
I2284
sS'532315'
p3542
I3942
sS'532316'
p3543
I3308
sS'532318'
p3544
I1269
sS'SRHHYPOLTD'
p3545
I3683
sS'HBSTOCK'
p3546
I1473
sS'ELECTCAST'
p3547
I1023
sS'520127'
p3548
I412
sS'520121'
p3549
I231
sS'520123'
p3550
I29
sS'PANACEABIO'
p3551
I2791
sS'KEYCORPSER'
p3552
I2023
sS'506172'
p3553
I3348
sS'506170'
p3554
I1542
sS'531754'
p3555
I1158
sS'531758'
p3556
I1289
sS'506178'
p3557
I2031
sS'526817'
p3558
I722
sS'526813'
p3559
I3050
sS'RTL'
p3560
I3179
sS'BIRLACOT'
p3561
I533
sS'508900'
p3562
I3843
sS'508905'
p3563
I3617
sS'508906'
p3564
I1097
sS'SUJANAUNI'
p3565
I3766
sS'ANDREWYULE'
p3566
I191
sS'ICDSLTD'
p3567
I1594
sS'522042'
p3568
I3615
sS'533209'
p3569
I3351
sS'533208'
p3570
I1040
sS'526608'
p3571
I1025
sS'533200'
p3572
I3887
sS'533203'
p3573
I3901
sS'533202'
p3574
I2643
sS'526971'
p3575
I929
sS'533204'
p3576
I2301
sS'533207'
p3577
I1848
sS'533206'
p3578
I3606
sS'532300'
p3579
I4346
sS'532753'
p3580
I282
sS'RAMKY'
p3581
I3102
sS'KERNEX'
p3582
I2014
sS'JAICORPLTD'
p3583
I1811
sS'PVP'
p3584
I3015
sS'PVR'
p3585
I3016
sS'RUCHISTRIP'
p3586
I3254
sS'530407'
p3587
I1069
sS'530405'
p3588
I1868
sS'530403'
p3589
I4171
sS'530401'
p3590
I4242
sS'NIFTYBEES'
p3591
I2528
sS'FCSSOFT'
p3592
I1132
sS'526546'
p3593
I732
sS'FRL'
p3594
I1113
sS'511644'
p3595
I2707
sS'511640'
p3596
I3362
sS'511642'
p3597
I4345
sS'ELECTHERM'
p3598
I1025
sS'523398'
p3599
I1546
sS'532555'
p3600
I2565
sS'532553'
p3601
I4320
sS'523391'
p3602
I2543
sS'523395'
p3603
I4404
sS'ECLERX'
p3604
I1002
sS'OISL'
p3605
I2692
sS'530537'
p3606
I2315
sS'MOLDPLAST'
p3607
I2438
sS'504731'
p3608
I1659
sS'503101'
p3609
I2320
sS'503100'
p3610
I2877
sS'ANANTRAJ'
p3611
I183
sS'RAMCOIND'
p3612
I3099
sS'DTIL'
p3613
I855
sS'530821'
p3614
I3698
sS'523025'
p3615
I3322
sS'CTE '
p3616
I645
sS'523021'
p3617
I3210
sS'523023'
p3618
I3593
sS'BALKRISIND'
p3619
I407
sS'RUCHISOYA'
p3620
I3253
sS'GENESYS'
p3621
I1271
sS'VALUEIND'
p3622
I4175
sS'SQSBFSI'
p3623
I3288
sS'531115'
p3624
I1920
sS'531112'
p3625
I445
sS'531111'
p3626
I1343
sS'GARDENSILK'
p3627
I1245
sS'EASTSILK'
p3628
I997
sS'531119'
p3629
I675
sS'531118'
p3630
I2781
sS'532127'
p3631
I2425
sS'505285'
p3632
I2015
sS'532124'
p3633
I3161
sS'532123'
p3634
I606
sS'532121'
p3635
I900
sS'505283'
p3636
I2057
sS'532129'
p3637
I1491
sS'507828'
p3638
I208
sS'3IINFOTECH'
p3639
I4403
sS'SRGINFOTEC'
p3640
I3306
sS'BLISSGVS'
p3641
I548
sS'506414'
p3642
I943
sS'500101'
p3643
I268
sS'500102'
p3644
I408
sS'500103'
p3645
I495
sS'500104'
p3646
I1531
sS'500106'
p3647
I1607
sS'500108'
p3648
I2267
sS'500109'
p3649
I2308
sS'524552'
p3650
I3479
sS'GOVINRUBER'
p3651
I1344
sS'STYABS'
p3652
I3272
sS'524558'
p3653
I2606
sS'515018'
p3654
I3154
sS'513262'
p3655
I3723
sS'513265'
p3656
I2486
sS'513269'
p3657
I2296
sS'526965'
p3658
I1394
sS'518051'
p3659
I4236
sS'VIKASHMET'
p3660
I4230
sS'ASTRAL'
p3661
I323
sS'532291'
p3662
I2002
sS'IOLCP'
p3663
I1769
sS'TELEDATAIT'
p3664
I3940
sS'530799'
p3665
I205
sS'530797'
p3666
I3510
sS'530795'
p3667
I3780
sS'SPYL'
p3668
I3484
sS'CRESTANI'
p3669
I826
sS'CPIL'
p3670
I661
sS'517417'
p3671
I2838
sS'512135'
p3672
I1059
sS'517411'
p3673
I3562
sS'INFOTECENT'
p3674
I1712
sS'504903'
p3675
I3132
sS'504908'
p3676
I3420
sS'SHAHALLOYS'
p3677
I3452
sS'ORBTEXP'
p3678
I2682
sS'512359'
p3679
I3234
sS'512351'
p3680
I2253
sS'GLOBALVECT'
p3681
I1301
sS'512355'
p3682
I212
sS'517415'
p3683
I2164
sS'531760'
p3684
I1200
sS'REMSONSIND'
p3685
I3184
sS'MAHABANK'
p3686
I2232
sS'531762'
p3687
I4125
sS'512131'
p3688
I3573
sS'530899'
p3689
I295
sS'532494'
p3690
I2394
sS'532493'
p3691
I322
sS'532491'
p3692
I1001
sS'530891'
p3693
I487
sS'505827'
p3694
I3621
sS'530897'
p3695
I2614
sS'532498'
p3696
I3552
sS'532949'
p3697
I2891
sS'532948'
p3698
I4053
sS'502880'
p3699
I1511
sS'532941'
p3700
I802
sS'532940'
p3701
I1801
sS'532942'
p3702
I2069
sS'532945'
p3703
I3553
sS'532944'
p3704
I2715
sS'532947'
p3705
I1776
sS'532946'
p3706
I418
sS'531944'
p3707
I3444
sS'531945'
p3708
I3792
sS'531942'
p3709
I2407
sS'FCEL'
p3710
I1114
sS'SEAMECLTD'
p3711
I3427
sS'504351'
p3712
I1050
sS'503657'
p3713
I4199
sS'SAMTEL'
p3714
I3352
sS'508136'
p3715
I376
sS'MAYURUNIQ'
p3716
I2226
sS'IGARASHI'
p3717
I1613
sS'522251'
p3718
I679
sS'522257'
p3719
I3085
sS'522259'
p3720
I1950
sS'TNPETRO'
p3721
I3891
sS'LICHSGFIN'
p3722
I2173
sS'521046'
p3723
I4179
sS'BIRLAPOWER'
p3724
I536
sS'521048'
p3725
I91
sS'526015'
p3726
I2010
sS'INFOMEDIA'
p3727
I1708
sS'BROOKS'
p3728
I602
sS'524709'
p3729
I2535
sS'AKSHOPTFBR'
p3730
I110
sS'524701'
p3731
I2004
sS'524703'
p3732
I3358
sS'SHAKTIPUMP'
p3733
I3276
sS'SHALPAINTS'
p3734
I3461
sS'REGENCERAM'
p3735
I3154
sS'GOLDBEES'
p3736
I1215
sS'MYSORPETRO'
p3737
I2510
sS'KRONECOMM'
p3738
I2104
sS'MUKATPIPE'
p3739
I2484
sS'507880'
p3740
I4243
sS'ISPATALLOY'
p3741
I1588
sS'EMAMILTD'
p3742
I1039
sS'503823'
p3743
I540
sS'511108'
p3744
I3499
sS'501756'
p3745
I3957
sS'TI'
p3746
I3970
sS'GOLDINFRA'
p3747
I1330
sS'INGERRAND'
p3748
I1719
sS'OILCOUNTUB'
p3749
I2698
sS'BHARTISHIP'
p3750
I501
sS'GOLDIAM'
p3751
I1329
sS'JUBILANT'
p3752
I1914
sS'523828'
p3753
I2380
sS'523539'
p3754
I2951
sS'523537'
p3755
I220
sS'523826'
p3756
I3655
sS'531301'
p3757
I4086
sS'531306'
p3758
I931
sS'531307'
p3759
I319
sS'531304'
p3760
I2677
sS'532378'
p3761
I4118
sS'532379'
p3762
I1775
sS'532372'
p3763
I4250
sS'532373'
p3764
I872
sS'532370'
p3765
I3100
sS'532371'
p3766
I3917
sS'532376'
p3767
I2476
sS'CONSOFINVT'
p3768
I790
sS'532374'
p3769
I3737
sS'532375'
p3770
I3978
sS'A2ZINFRA'
p3771
I10
sS'506991'
p3772
I2653
sS'OSWALSPG'
p3773
I2754
sS'521232'
p3774
I3791
sS'NIYATILEAS'
p3775
I2650
sS'531778'
p3776
I1938
sS'506194'
p3777
I3459
sS'506197'
p3778
I548
sS'531777'
p3779
I1744
sS'506190'
p3780
I3395
sS'531775'
p3781
I748
sS'531774'
p3782
I4037
sS'526833'
p3783
I184
sS'526835'
p3784
I3577
sS'526839'
p3785
I667
sS'UBHOLDINGS'
p3786
I4106
sS'MASTEK'
p3787
I2338
sS'PARRYSUGAR'
p3788
I2825
sS'517080'
p3789
I4348
sS'508969'
p3790
I3768
sS'524084'
p3791
I2448
sS'524082'
p3792
I1456
sS'524080'
p3793
I1462
sS'522064'
p3794
I1552
sS'KAMATHOTEL'
p3795
I1962
sS'526957'
p3796
I4144
sS'526955'
p3797
I37
sS'533220'
p3798
I2400
sS'533227'
p3799
I301
sS'526951'
p3800
I1325
sS'533229'
p3801
I391
sS'533228'
p3802
I3611
sS'BILENERGY'
p3803
I518
sS'526959'
p3804
I813
sS'532677'
p3805
I4230
sS'532676'
p3806
I2842
sS'532675'
p3807
I2978
sS'EUROCERA'
p3808
I1089
sS'500290'
p3809
I2475
sS'532497'
p3810
I3047
sS'532671'
p3811
I1486
sS'526481'
p3812
I2876
sS'526483'
p3813
I3952
sS'526488'
p3814
I2680
sS'511489'
p3815
I1237
sS'VIVIDHA'
p3816
I4156
sS'GTLINFRA'
p3817
I1380
sS'530429'
p3818
I286
sS'519463'
p3819
I1593
sS'530421'
p3820
I2120
sS'530425'
p3821
I3785
sS'530427'
p3822
I731
sS'590118'
p3823
I1717
sS'590119'
p3824
I365
sS'590113'
p3825
I1447
sS'590110'
p3826
I3024
sS'590111'
p3827
I2340
sS'590117'
p3828
I2276
sS'590114'
p3829
I264
sS'590115'
p3830
I2462
sS'511668'
p3831
I1122
sS'511664'
p3832
I472
sS'511660'
p3833
I2961
sS'CAMPALLIED'
p3834
I649
sS'BAJAJELEC'
p3835
I392
sS'500830'
p3836
I770
sS'AMTL'
p3837
I5
sS'526496'
p3838
I3248
sS'526225'
p3839
I549
sS'526227'
p3840
I1147
sS'503127'
p3841
I3068
sS'SIL'
p3842
I3706
sS'MOIL'
p3843
I2437
sS'PITTILAM'
p3844
I2896
sS'BEDMUTHA'
p3845
I442
sS'532389'
p3846
I4169
sS'531171'
p3847
I907
sS'531173'
p3848
I3862
sS'531172'
p3849
I2941
sS'531175'
p3850
I592
sS'531176'
p3851
I2370
sS'531179'
p3852
I247
sS'531178'
p3853
I436
sS'FINPIPE'
p3854
I1157
sS'BBTC'
p3855
I569
sS'532141'
p3856
I187
sS'532140'
p3857
I3216
sS'532143'
p3858
I3608
sS'532145'
p3859
I1444
sS'532144'
p3860
I4322
sS'500346'
p3861
I3009
sS'500344'
p3862
I3011
sS'500343'
p3863
I3001
sS'LOTTEINDIA'
p3864
I2201
sS'506313'
p3865
I574
sS'RELCAPITAL'
p3866
I3163
sS'SAYAJIHOTL'
p3867
I3268
sS'SUPPETRO'
p3868
I3811
sS'506315'
p3869
I580
sS'500168'
p3870
I1338
sS'ANDHRACEMT'
p3871
I187
sS'500162'
p3872
I2825
sS'SUTLEJTEX'
p3873
I3836
sS'500160'
p3874
I1381
sS'500166'
p3875
I1337
sS'500696'
p3876
I1533
sS'500165'
p3877
I1974
sS'GILLETTE'
p3878
I1283
sS'524576'
p3879
I4269
sS'524572'
p3880
I2873
sS'524570'
p3881
I2905
sS'EICHERMOT'
p3882
I1008
sS'514215'
p3883
I525
sS'513534'
p3884
I4185
sS'NFL'
p3885
I2558
sS'514211'
p3886
I3771
sS'513530'
p3887
I3727
sS'513532'
p3888
I2932
sS'HCC'
p3889
I1519
sS'SPICETELE'
p3890
I3670
sS'EVEREADY'
p3891
I1094
sS'DCMSHRIRAM'
p3892
I853
sS'FARMAXIND'
p3893
I1128
sS'HITACHIHOM'
p3894
I1546
sS'524164'
p3895
I1769
sS'SUMEETINDS'
p3896
I3771
sS'IITL'
p3897
I1702
sS'506690'
p3898
I4088
sS'JSWENERGY'
p3899
I1909
sS'TVSSRICHAK'
p3900
I4064
sS'INDIANCARD'
p3901
I1660
sS'PLETHICO'
p3902
I2902
sS'512113'
p3903
I862
sS'517437'
p3904
I979
sS'520081'
p3905
I995
sS'HEROMOTOCO'
p3906
I1489
sS'520086'
p3907
I3567
sS'511672'
p3908
I756
sS'ATNINTER'
p3909
I329
sS'ASHOKA'
p3910
I290
sS'SHLAKSHMI'
p3911
I3548
sS'512377'
p3912
I2258
sS'519586'
p3913
I4355
sS'519588'
p3914
I912
sS'512379'
p3915
I825
sS'IVRCLINFRA'
p3916
I1791
sS'MBSWITCH'
p3917
I2218
sS'STRTECH'
p3918
I3737
sS'532961'
p3919
I3603
sS'532960'
p3920
I1654
sS'532967'
p3921
I2050
sS'532966'
p3922
I3986
sS'500800'
p3923
I3909
sS'532969'
p3924
I723
sS'GTNIND'
p3925
I1382
sS'502865'
p3926
I1172
sS'MAHAPEXLTD'
p3927
I2261
sS'HINVDIR'
p3928
I1566
sS'532543'
p3929
I3325
sS'CEATFIN'
p3930
I694
sS'532548'
p3931
I689
sS'523387'
p3932
I4039
sS'SANGHIIND'
p3933
I3363
sS'KOTAKNIFTY'
p3934
I2083
sS'522233'
p3935
I1865
sS'522231'
p3936
I786
sS'522237'
p3937
I3500
sS'522235'
p3938
I2409
sS'GODREJCP'
p3939
I1313
sS'RPPINFRA'
p3940
I3039
sS'BALRAMCHIN'
p3941
I411
sS'521022'
p3942
I3828
sS'526033'
p3943
I832
sS'524760'
p3944
I267
sS'524764'
p3945
I2678
sS'524768'
p3946
I1045
sS'SUDAR'
p3947
I3759
sS'533159'
p3948
I228
sS'533158'
p3949
I3958
sS'533155'
p3950
I1912
sS'533154'
p3951
I1705
sS'533157'
p3952
I3858
sS'533156'
p3953
I4191
sS'533151'
p3954
I856
sS'533150'
p3955
I1315
sS'533152'
p3956
I2356
sS'SUZLONFIBR'
p3957
I3622
sS'CEENIKEXPO'
p3958
I675
sS'503804'
p3959
I3543
sS'503806'
p3960
I3686
sS'533482'
p3961
I3146
sS'504671'
p3962
I710
sS'SENTINEL'
p3963
I3439
sS'511122'
p3964
I1159
sS'PRICOL'
p3965
I2966
sS'BUWALKASTL'
p3966
I514
sS'511128'
p3967
I1227
sS'MAGMA'
p3968
I2255
sS'INDIAGLYCO'
p3969
I1642
sS'505678'
p3970
I818
sS'HCLTECH'
p3971
I1476
sS'526562'
p3972
I2846
sS'CINEMAXIN'
p3973
I633
sS'COUNCODOS'
p3974
I619
sS'531099'
p3975
I3250
sS'531092'
p3976
I2703
sS'531091'
p3977
I4109
sS'531096'
p3978
I2466
sS'GEOJITBNPP'
p3979
I1276
sS'532688'
p3980
I782
sS'532689'
p3981
I3016
sS'532682'
p3982
I33
sS'532683'
p3983
I96
sS'532686'
p3984
I2014
sS'532687'
p3985
I3186
sS'532684'
p3986
I1098
sS'531324'
p3987
I3230
sS'531327'
p3988
I707
sS'531320'
p3989
I257
sS'531322'
p3990
I3549
sS'531323'
p3991
I3375
sS'531328'
p3992
I1603
sS'532354'
p3993
I2714
sS'532355'
p3994
I3941
sS'532356'
p3995
I4042
sS'532357'
p3996
I2488
sS'532350'
p3997
I2784
sS'532351'
p3998
I110
sS'532358'
p3999
I3938
sS'532359'
p4000
I1545
sS'ADHUNIK'
p4001
I60
sS'DREDGECORP'
p4002
I967
sS'532055'
p4003
I3123
sS'521123'
p4004
I2847
sS'509895'
p4005
I3599
sS'516112'
p4006
I543
sS'DCMSRMCONS'
p4007
I879
sS'VINATIORGA'
p4008
I4235
sS'530055'
p4009
I1457
sS'530057'
p4010
I1788
sS'526859'
p4011
I1748
sS'508941'
p4012
I2794
sS'530053'
p4013
I1496
sS'526853'
p4014
I519
sS'517370'
p4015
I1627
sS'526851'
p4016
I239
sS'530059'
p4017
I2269
sS'512589'
p4018
I3602
sS'TECPRO'
p4019
I3936
sS'ARSSINFRA'
p4020
I258
sS'CUMMINSIND'
p4021
I836
sS'512587'
p4022
I4396
sS'RPL'
p4023
I3173
sS'512585'
p4024
I1982
sS'522001'
p4025
I820
sS'CIBASPEC'
p4026
I737
sS'522005'
p4027
I340
sS'522004'
p4028
I434
sS'526931'
p4029
I1455
sS'526935'
p4030
I2355
sS'UGARSUGAR'
p4031
I4080
sS'530669'
p4032
I2953
sS'RELAXO'
p4033
I3160
sS'MOREPENLAB'
p4034
I2453
sS'ALMONDZ'
p4035
I140
sS'SURYALAXMI'
p4036
I3830
sS'530665'
p4037
I4387
sS'530443'
p4038
I2048
sS'530441'
p4039
I2268
sS'530445'
p4040
I3772
sS'530449'
p4041
I3256
sS'511463'
p4042
I1899
sS'LUMAXTECH'
p4043
I2208
sS'KGDENIM'
p4044
I2024
sS'MURLIIND'
p4045
I2501
sS'BROADCAST'
p4046
I601
sS'502455'
p4047
I3601
sS'502450'
p4048
I3447
sS'RPGCABLES'
p4049
I3240
sS'504112'
p4050
I2590
sS'511609'
p4051
I1723
sS'523359'
p4052
I3476
sS'511601'
p4053
I4363
sS'523357'
p4054
I1404
sS'511605'
p4055
I243
sS'523353'
p4056
I670
sS'511607'
p4057
I3503
sS'523351'
p4058
I714
sS'532518'
p4059
I1881
sS'532519'
p4060
I1884
sS'532513'
p4061
I4061
sS'532511'
p4062
I1102
sS'532516'
p4063
I3823
sS'532517'
p4064
I2839
sS'532514'
p4065
I1693
sS'532515'
p4066
I4059
sS'ICNX100'
p4067
I1584
sS'526209'
p4068
I2106
sS'INGVYSYABK'
p4069
I1718
sS'HOCL'
p4070
I1530
sS'VISHNU'
p4071
I4146
sS'507794'
p4072
I2027
sS'507796'
p4073
I1864
sS'TCS'
p4074
I3907
sS'TCI'
p4075
I4020
sS'DPSCLTD'
p4076
I962
sS'531158'
p4077
I666
sS'IL&FSENGG;'
p4078
I1617
sS'531153'
p4079
I4368
sS'531157'
p4080
I2726
sS'531156'
p4081
I125
sS'531155'
p4082
I1569
sS'RAINBOWPAP'
p4083
I3061
sS'500368'
p4084
I3253
sS'532168'
p4085
I2249
sS'PIRLIFE'
p4086
I2893
sS'532163'
p4087
I3388
sS'500361'
p4088
I3120
sS'505790'
p4089
I1123
sS'532160'
p4090
I1419
sS'532167'
p4091
I2709
sS'532166'
p4092
I130
sS'500366'
p4093
I3223
sS'500367'
p4094
I3249
sS'SPARTEK'
p4095
I3662
sS'508306'
p4096
I2163
sS'507864'
p4097
I2889
sS'IPGETF'
p4098
I1598
sS'500144'
p4099
I1156
sS'500145'
p4100
I1161
sS'505426'
p4101
I861
sS'500147'
p4102
I1165
sS'500141'
p4103
I1139
sS'500142'
p4104
I1141
sS'SRHHLINDST'
p4105
I3688
sS'500148'
p4106
I4078
sS'524518'
p4107
I2096
sS'MAHSCOOTER'
p4108
I2273
sS'524516'
p4109
I381
sS'NDL'
p4110
I2526
sS'532658'
p4111
I1066
sS'LPDC'
p4112
I2155
sS'HEG'
p4113
I1481
sS'518091'
p4114
I199
sS'530201'
p4115
I1951
sS'530207'
p4116
I591
sS'PILIND'
p4117
I2775
sS'INDOASAHI'
p4118
I1592
sS'SAKTHIFIN'
p4119
I3335
sS'TECHIN'
p4120
I3872
sS'TIMESGTY'
p4121
I3973
sS'POWERGRID'
p4122
I2929
sS'AIAENG'
p4123
I96
sS'CANDC '
p4124
I635
sS'501233'
p4125
I484
sS'ACKRUTI'
p4126
I109
sS'ROLTA'
p4127
I3223
sS'DIGJAM'
p4128
I942
sS'513517'
p4129
I3725
sS'513515'
p4130
I3679
sS'514234'
p4131
I3361
sS'513513'
p4132
I69
sS'513511'
p4133
I2796
sS'513519'
p4134
I2896
sS'514238'
p4135
I1614
sS'519612'
p4136
I2262
sS'517451'
p4137
I4049
sS'KIRLOSFERR'
p4138
I2054
sS'512175'
p4139
I4177
sS'KANDAGIRI'
p4140
I1968
sS'512179'
p4141
I3795
sS'RAJASPETRO'
p4142
I3071
sS'520066'
p4143
I1837
sS'SIMPLEXINF'
p4144
I3586
sS'512399'
p4145
I1976
sS'PHOENIXLL'
p4146
I2773
sS'512397'
p4147
I3128
sS'512393'
p4148
I3473
sS'PSUBNKBEES'
p4149
I2996
sS'TULIP'
p4150
I4052
sS'MVLIND'
p4151
I2364
sS'MALCO'
p4152
I2247
sS'531638'
p4153
I3815
sS'TOKYOPLAST'
p4154
I3996
sS'531635'
p4155
I3578
sS'532618'
p4156
I4257
sS'531633'
p4157
I2179
sS'590062'
p4158
I190
sS'CONCOR'
p4159
I792
sS'BANKRAJAS'
p4160
I422
sS'532989'
p4161
I384
sS'532988'
p4162
I3110
sS'532985'
p4163
I2085
sS'532984'
p4164
I1060
sS'532987'
p4165
I3109
sS'532986'
p4166
I2636
sS'532981'
p4167
I214
sS'532980'
p4168
I1320
sS'532983'
p4169
I3241
sS'HANILERA'
p4170
I1448
sS'531988'
p4171
I1832
sS'531989'
p4172
I886
sS'531980'
p4173
I3438
sS'531982'
p4174
I3666
sS'KALECONSUL'
p4175
I1948
sS'502157'
p4176
I2303
sS'507300'
p4177
I3137
sS'502150'
p4178
I1958
sS'522215'
p4179
I3852
sS'NBVENTURES'
p4180
I2570
sS'522217'
p4181
I1387
sS'522219'
p4182
I1570
sS'521005'
p4183
I2983
sS'521003'
p4184
I3498
sS'503796'
p4185
I942
sS'ESSARPORTS'
p4186
I1082
sS'502281'
p4187
I4043
sS'PERMAGNET'
p4188
I2861
sS'530859'
p4189
I809
sS'530589'
p4190
I2969
sS'530855'
p4191
I1260
sS'530585'
p4192
I3851
sS'530583'
p4193
I4276
sS'530853'
p4194
I1539
sS'TATAMETALI'
p4195
I3911
sS'524748'
p4196
I2181
sS'524742'
p4197
I656
sS'524743'
p4198
I1164
sS'533177'
p4199
I1619
sS'533176'
p4200
I963
sS'533172'
p4201
I3177
sS'533171'
p4202
I4105
sS'533170'
p4203
I3888
sS'INDIANACRY'
p4204
I1657
sS'GANESHHOUC'
p4205
I1239
sS'533179'
p4206
I2862
sS'533178'
p4207
I2933
sS'BUTTERFLY'
p4208
I372
sS'NEOCORP'
p4209
I2516
sS'PHOENXINTL'
p4210
I2876
sS'GKWLIMITED'
p4211
I1291
sS'BAJFINANCE'
p4212
I393
sS'SKIL'
p4213
I3296
sS'SHAWGELTIN'
p4214
I3305
sS'SIGROUPIND'
p4215
I3564
sS'IFGLREFRAC'
p4216
I1608
sS'509220'
p4217
I2999
sS'523164'
p4218
I3597
sS'511149'
p4219
I3183
sS'523160'
p4220
I2457
sS'517166'
p4221
I3667
sS'511147'
p4222
I4302
sS'511144'
p4223
I3409
sS'517164'
p4224
I4384
sS'517433'
p4225
I1724
sS'505650'
p4226
I3613
sS'INDNIPPON'
p4227
I1646
sS'SHIVTEX'
p4228
I3499
sS'ADANIPOWER'
p4229
I55
sS'SUNDRMBRAK'
p4230
I3781
sS'VHL'
p4231
I4184
sS'EUROTEXIND'
p4232
I1093
sS'523576'
p4233
I1166
sS'523574'
p4234
I2802
sS'500550'
p4235
I3572
sS'MUKANDLTD'
p4236
I2483
sS'GREENPLY'
p4237
I1365
sS'506222'
p4238
I1704
sS'514394'
p4239
I1261
sS'ZEELEARN'
p4240
I4379
sS'IBULHSGFIN'
p4241
I1577
sS'SHIRPUR-G'
p4242
I3271
sS'531300'
p4243
I167
sS'532741'
p4244
I1963
sS'523820'
p4245
I2591
sS'FORBESGOK'
p4246
I1172
sS'RAVALSUGAR'
p4247
I3137
sS'IBREALEST'
p4248
I1653
sS'NIVINFRA'
p4249
I2523
sS'RAMAVISION'
p4250
I3098
sS'513709'
p4251
I3488
sS'526871'
p4252
I1732
sS'526873'
p4253
I3070
sS'513703'
p4254
I2113
sS'526879'
p4255
I4137
sS'SMOBILITY'
p4256
I3309
sS'530079'
p4257
I1131
sS'530077'
p4258
I1188
sS'MVL'
p4259
I2506
sS'530075'
p4260
I3435
sS'530073'
p4261
I3366
sS'ABIRLANUVO'
p4262
I67
sS'530071'
p4263
I2828
sS'532749'
p4264
I135
sS'ZENITHBIR'
p4265
I4383
sS'SGJHL'
p4266
I3512
sS'522029'
p4267
I4337
sS'TATACOMM'
p4268
I3906
sS'FVIL'
p4269
I1116
sS'PGIL'
p4270
I2760
sS'KOLTEPATIL'
p4271
I2074
sS'502958'
p4272
I2145
sS'CINEMAX '
p4273
I743
sS'526917'
p4274
I711
sS'NORTHGATE'
p4275
I2658
sS'511447'
p4276
I3855
sS'511441'
p4277
I1395
sS'530469'
p4278
I1378
sS'530464'
p4279
I170
sS'530466'
p4280
I440
sS'530461'
p4281
I3318
sS'NIRLON'
p4282
I2638
sS'TTKPRESTIG'
p4283
I4047
sS'519421'
p4284
I2108
sS'RANKLIN'
p4285
I3115
sS'HCIL'
p4286
I1500
sS'511626'
p4287
I3242
sS'VLSFINANCE'
p4288
I4273
sS'511628'
p4289
I593
sS'530839'
p4290
I759
sS'532537'
p4291
I2209
sS'532531'
p4292
I3746
sS'532532'
p4293
I1821
sS'523371'
p4294
I2347
sS'523373'
p4295
I2414
sS'532538'
p4296
I4082
sS'532539'
p4297
I2411
sS'531845'
p4298
I4383
sS'530833'
p4299
I31
sS'531847'
p4300
I308
sS'531846'
p4301
I966
sS'531841'
p4302
I3755
sS'531840'
p4303
I1604
sS'531843'
p4304
I2508
sS'531842'
p4305
I2139
sS'NMDC'
p4306
I2652
sS'526269'
p4307
I827
sS'DCB'
p4308
I906
sS'526263'
p4309
I2438
sS'524156'
p4310
I3926
sS'EDUCOMP'
p4311
I1007
sS'COMSYS'
p4312
I782
sS'BAGWATIGAS'
p4313
I474
sS'TATAYODOGA'
p4314
I3920
sS'GUJSIDHCEM'
p4315
I1417
sS'500302'
p4316
I2892
sS'500303'
p4317
I67
sS'MIRZAINT'
p4318
I2419
sS'500301'
p4319
I2594
sS'500306'
p4320
I1885
sS'500307'
p4321
I2638
sS'500304'
p4322
I2624
sS'500305'
p4323
I1910
sS'500308'
p4324
I2639
sS'507514'
p4325
I3637
sS'507515'
p4326
I753
sS'HDIL'
p4327
I1560
sS'524689'
p4328
I2819
sS'505681'
p4329
I521
sS'524683'
p4330
I2387
sS'524687'
p4331
I430
sS'503162'
p4332
I3164
sS'503169'
p4333
I3251
sS'TAKSHEEL'
p4334
I3868
sS'GMDCLTD'
p4335
I1407
sS'500416'
p4336
I3985
sS'NRBBEARING'
p4337
I2668
sS'SIRPAPER'
p4338
I3601
sS'PREMIERPOL'
p4339
I2959
sS'KBIL'
p4340
I2051
sS'500413'
p4341
I3965
sS'RELNIFTY'
p4342
I3029
sS'KFA'
p4343
I2046
sS'530263'
p4344
I1298
sS'ABB'
p4345
I25
sS'530261'
p4346
I236
sS'530267'
p4347
I3317
sS'530265'
p4348
I3332
sS'530269'
p4349
I3432
sS'HGS'
p4350
I1441
sS'RIIL'
p4351
I3166
sS'509055'
p4352
I4254
sS'509051'
p4353
I1664
sS'509053'
p4354
I416
sS'TFL '
p4355
I4021
sS'HIMATSEIDE'
p4356
I1504
sS'BLKASHYAP'
p4357
I545
sS'519091'
p4358
I3903
sS'ASTRAMICRO'
p4359
I322
sS'513575'
p4360
I3733
sS'NBCC'
p4361
I2519
sS'513579'
p4362
I1179
sS'514258'
p4363
I1573
sS'SHUKRADIAM'
p4364
I3558
sS'WATERBASE'
p4365
I4307
sS'JPINFRATEC'
p4366
I1848
sS'512626'
p4367
I2721
sS'SAVERA'
p4368
I3406
sS'517477'
p4369
I1033
sS'517471'
p4370
I2070
sS'522183'
p4371
I1787
sS'520043'
p4372
I2497
sS'WELENTRP'
p4373
I4293
sS'509449'
p4374
I475
sS'V2RETAIL'
p4375
I4150
sS'PFIZER'
p4376
I2865
sS'SHPRE'
p4377
I3522
sS'531771'
p4378
I4005
sS'513397'
p4379
I4172
sS'506079'
p4380
I2146
sS'KPRMILL'
p4381
I2094
sS'531611'
p4382
I2992
sS'531612'
p4383
I2026
sS'531613'
p4384
I1288
sS'506076'
p4385
I1370
sS'531615'
p4386
I1071
sS'506074'
p4387
I256
sS'531617'
p4388
I2748
sS'JUPITER'
p4389
I1916
sS'502820'
p4390
I878
sS'ESSARSHPNG'
p4391
I990
sS'526441'
p4392
I4264
sS'RELCONS'
p4393
I3038
sS'GAMMNINFRA'
p4394
I1233
sS'505358'
p4395
I3419
sS'SUPERHOUSE'
p4396
I3286
sS'502175'
p4397
I3402
sS'VAKRANGEE'
p4398
I4145
sS'ATULAUTO'
p4399
I8
sS'530871'
p4400
I712
sS'526075'
p4401
I3159
sS'526071'
p4402
I3436
sS'530879'
p4403
I508
sS'526073'
p4404
I1226
sS'AXISBANK'
p4405
I361
sS'SHREYAS'
p4406
I3540
sS'MORARJEE'
p4407
I2225
sS'504367'
p4408
I2445
sS'GTNTEX'
p4409
I1383
sS'533110'
p4410
I3522
sS'509243'
p4411
I4064
sS'WHIRLPOOL'
p4412
I4330
sS'INDOWIND'
p4413
I1692
sS'WINDMACHIN'
p4414
I4337
sS'508961'
p4415
I3550
sS'PORRITSPEN'
p4416
I4277
sS'KTKBANK'
p4417
I1983
sS'ISIBARS'
p4418
I1648
sS'RANASUG'
p4419
I3106
sS'ASTRAZEN'
p4420
I324
sS'GSCLCEMENT'
p4421
I1205
sS'506720'
p4422
I4377
sS'MATRIXLABS'
p4423
I2345
sS'VIMALOIL'
p4424
I4155
sS'514418'
p4425
I973
sS'511169'
p4426
I1502
sS'SUNDARMFIN'
p4427
I3783
sS'523144'
p4428
I2362
sS'DBCORP'
p4429
I856
sS'531055'
p4430
I1348
sS'GOACARBON'
p4431
I1309
sS'531051'
p4432
I4239
sS'PROZONECSC'
p4433
I2779
sS'532649'
p4434
I2582
sS'532646'
p4435
I4096
sS'532647'
p4436
I2991
sS'532644'
p4437
I1882
sS'532645'
p4438
I443
sS'532642'
p4439
I1876
sS'532643'
p4440
I3511
sS'532640'
p4441
I841
sS'532641'
p4442
I2549
sS'526953'
p4443
I4205
sS'ALLSEC'
p4444
I138
sS'ORIENTHOT'
p4445
I2737
sS'523558'
p4446
I2604
sS'523550'
p4447
I2105
sS'532398'
p4448
I4132
sS'532399'
p4449
I3169
sS'532390'
p4450
I3883
sS'500530'
p4451
I582
sS'532392'
p4452
I823
sS'BERGEPAINT'
p4453
I461
sS'521248'
p4454
I2060
sS'532397'
p4455
I793
sS'506248'
p4456
I165
sS'KESORAMIND'
p4457
I2019
sS'521242'
p4458
I1968
sS'513142'
p4459
I1588
sS'526560'
p4460
I1055
sS'524322'
p4461
I1936
sS'TIMEXWATCH'
p4462
I3974
sS'KKCL'
p4463
I2021
sS'514116'
p4464
I1431
sS'513727'
p4465
I3114
sS'513721'
p4466
I2503
sS'513723'
p4467
I1501
sS'513729'
p4468
I249
sS'SUPREMETEX'
p4469
I3812
sS'526899'
p4470
I1503
sS'BIRLAMONEY'
p4471
I375
sS'526893'
p4472
I3697
sS'526891'
p4473
I2327
sS'530019'
p4474
I1914
sS'508989'
p4475
I2574
sS'508980'
p4476
I1190
sS'508982'
p4477
I2183
sS'530017'
p4478
I3706
sS'AMARAJABAT'
p4479
I155
sS'BODHTREE'
p4480
I568
sS'ALFALAVAL'
p4481
I123
sS'533281'
p4482
I3930
sS'DALMIABHA'
p4483
I846
sS'GNFC'
p4484
I1409
sS'533282'
p4485
I1359
sS'533284'
p4486
I3039
sS'533287'
p4487
I4379
sS'533286'
p4488
I2437
sS'533289'
p4489
I2018
sS'CREATIVEYE'
p4490
I823
sS'SUVEN'
p4491
I3837
sS'AUTOLITIND'
p4492
I343
sS'KHAITANLTD'
p4493
I2029
sS'523419'
p4494
I3893
sS'517399'
p4495
I4288
sS'ZODIACLOTH'
p4496
I4395
sS'517391'
p4497
I1231
sS'517393'
p4498
I4240
sS'CIGNITITEC'
p4499
I626
sS'517397'
p4500
I2789
sS'532606'
p4501
I2817
sS'KARURKCP'
p4502
I1986
sS'511421'
p4503
I1180
sS'500285'
p4504
I3672
sS'511427'
p4505
I329
sS'523411'
p4506
I2104
sS'500284'
p4507
I2234
sS'MTNL'
p4508
I2267
sS'532884'
p4509
I3150
sS'532885'
p4510
I681
sS'532886'
p4511
I3434
sS'532887'
p4512
I3765
sS'532880'
p4513
I2705
sS'532881'
p4514
I1790
sS'512453'
p4515
I3545
sS'532883'
p4516
I4401
sS'532888'
p4517
I300
sS'532889'
p4518
I2094
sS'ELNET'
p4519
I1033
sS'532609'
p4520
I501
sS'AREVAT&D;'
p4521
I238
sS'513428'
p4522
I1687
sS'500250'
p4523
I2167
sS'NITESHEST'
p4524
I2643
sS'526799'
p4525
I4094
sS'SAPL'
p4526
I3646
sS'523315'
p4527
I3014
sS'511393'
p4528
I919
sS'511391'
p4529
I1747
sS'523319'
p4530
I409
sS'526795'
p4531
I2275
sS'526797'
p4532
I1365
sS'516064'
p4533
I252
sS'AUTORIDFIN'
p4534
I347
sS'PERSISTENT'
p4535
I2862
sS'531869'
p4536
I3319
sS'531867'
p4537
I4103
sS'531866'
p4538
I3753
sS'531865'
p4539
I4278
sS'531863'
p4540
I1263
sS'SUNDRMFAST'
p4541
I3786
sS'531861'
p4542
I1897
sS'502587'
p4543
I3097
sS'HINDEVELOP'
p4544
I1535
sS'502589'
p4545
I4181
sS'USHDEVINT'
p4546
I4135
sS'DLINKINDIA'
p4547
I859
sS'GAL'
p4548
I1435
sS'505800'
p4549
I3111
sS'RADAAN'
p4550
I3044
sS'JCT'
p4551
I1855
sS'500329'
p4552
I2855
sS'RESURGERE'
p4553
I3190
sS'500325'
p4554
I3167
sS'500327'
p4555
I2845
sS'505200'
p4556
I1008
sS'500322'
p4557
I2806
sS'500323'
p4558
I2818
sS'DEEPAKSPIN'
p4559
I893
sS'SIEMENS'
p4560
I3572
sS'526241'
p4561
I173
sS'521216'
p4562
I918
sS'526247'
p4563
I2957
sS'526530'
p4564
I3761
sS'526532'
p4565
I1086
sS'526538'
p4566
I2349
sS'500188'
p4567
I1534
sS'PIRPHYTO'
p4568
I2774
sS'500180'
p4569
I1477
sS'500182'
p4570
I1489
sS'500183'
p4571
I1499
sS'500184'
p4572
I1500
sS'500185'
p4573
I1519
sS'500186'
p4574
I1529
sS'500187'
p4575
I1567
sS'515099'
p4576
I2133
sS'515097'
p4577
I1262
sS'515093'
p4578
I2240
sS'HSIL'
p4579
I1567
sS'530249'
p4580
I594
sS'ARCHIES'
p4581
I234
sS'GRASIM'
p4582
I1354
sS'530245'
p4583
I271
sS'EIHAHOTELS'
p4584
I1010
sS'530243'
p4585
I2309
sS'BVCL'
p4586
I426
sS'532782'
p4587
I3836
sS'509079'
p4588
I1384
sS'509077'
p4589
I2673
sS'509073'
p4590
I1464
sS'519183'
p4591
I59
sS'JBCHEPHARM'
p4592
I1851
sS'ARIES'
p4593
I241
sS'504132'
p4594
I2861
sS'501270'
p4595
I705
sS'531265'
p4596
I2988
sS'ESSDEE'
p4597
I1080
sS'KANELOIL'
p4598
I1969
sS'531261'
p4599
I2117
sS'531260'
p4600
I3415
sS'531262'
p4601
I3822
sS'531269'
p4602
I2065
sS'531268'
p4603
I379
sS'513558'
p4604
I3147
sS'532070'
p4605
I3803
sS'532072'
p4606
I1761
sS'514272'
p4607
I506
sS'532078'
p4608
I2442
sS'513554'
p4609
I3080
sS'512608'
p4610
I486
sS'512600'
p4611
I2239
sS'WILLAMAGOR'
p4612
I4335
sS'512604'
p4613
I1452
sS'RSSOFTWARE'
p4614
I3244
sS'520022'
p4615
I902
sS'504988'
p4616
I4313
sS'520026'
p4617
I1484
sS'GANGOTRI'
p4618
I1242
sS'531672'
p4619
I1624
sS'531673'
p4620
I201
sS'531670'
p4621
I757
sS'531671'
p4622
I541
sS'531676'
p4623
I4165
sS'531674'
p4624
I1676
sS'531675'
p4625
I4031
sS'531678'
p4626
I181
sS'506059'
p4627
I3724
sS'OPTOCIRCUI'
p4628
I2718
sS'DYNATECH'
p4629
I847
sS'AGRODUTCH'
p4630
I86
sS'AMBASARABH'
p4631
I157
sS'KOTARISUG'
p4632
I2089
sS'CUB'
p4633
I752
sS'NAVINFLUOR'
p4634
I2572
sS'513446'
p4635
I2443
sS'514484'
p4636
I3956
sS'TANTIACONS'
p4637
I3897
sS'530811'
p4638
I2602
sS'530813'
p4639
I2095
sS'530815'
p4640
I3151
sS'CIPLA'
p4641
I746
sS'513456'
p4642
I1971
sS'THIRUSUGAR'
p4643
I3963
sS'517015'
p4644
I4237
sS'SADBHAV'
p4645
I3320
sS'SANDESH'
p4646
I3357
sS'SANGHIPOLY'
p4647
I3364
sS'ADANIENT'
p4648
I54
sS'533138'
p4649
I320
sS'533137'
p4650
I899
sS'CASTROLIND'
p4651
I628
sS'530713'
p4652
I730
sS'519216'
p4653
I100
sS'WELPROJ'
p4654
I4320
sS'519210'
p4655
I1725
sS'ASIANTILES'
p4656
I300
sS'504614'
p4657
I3384
sS'504340'
p4658
I788
sS'504341'
p4659
I3140
sS'503641'
p4660
I1372
sS'UNIONBANK'
p4661
I4093
sS'511187'
p4662
I2265
sS'511185'
p4663
I3829
sS'523120'
p4664
I71
sS'523127'
p4665
I1010
sS'GEECEE'
p4666
I1265
sS'SHETRON'
p4667
I3486
sS'MUKTAARTS'
p4668
I2488
sS'MINDAIND'
p4669
I2411
sS'500410'
p4670
I39
sS'APLAB'
p4671
I219
sS'532668'
p4672
I335
sS'532669'
p4673
I3652
sS'UNIVCABLES'
p4674
I4119
sS'532661'
p4675
I3112
sS'532662'
p4676
I1568
sS'532663'
p4677
I3396
sS'532664'
p4678
I154
sS'532665'
p4679
I3088
sS'532666'
p4680
I1132
sS'532667'
p4681
I3838
sS'EVERONN'
p4682
I1100
sS'531382'
p4683
I1845
sS'531380'
p4684
I680
sS'531381'
p4685
I244
sS'531387'
p4686
I1463
sS'500045'
p4687
I447
sS'500046'
p4688
I465
sS'500041'
p4689
I424
sS'500040'
p4690
I690
sS'500043'
p4691
I433
sS'AUSTRAL'
p4692
I341
sS'500049'
p4693
I491
sS'500048'
p4694
I449
sS'ORISSAMINE'
p4695
I2742
sS'524470'
p4696
I3857
sS'NATCOPHARM'
p4697
I2554
sS'TTL'
p4698
I4045
sS'DBREALTY'
p4699
I857
sS'PANTALOONR'
p4700
I2802
sS'513121'
p4701
I2727
sS'506919'
p4702
I2289
sS'513127'
p4703
I3518
sS'MAARSOFTW'
p4704
I2235
sS'506261'
p4705
I2434
sS'506260'
p4706
I211
sS'506910'
p4707
I1850
sS'NGCT'
p4708
I2525
sS'UNIPLY'
p4709
I4096
sS'530389'
p4710
I1266
sS'COROMANDEL'
p4711
I806
sS'530381'
p4712
I2863
sS'BEARDSELL'
p4713
I440
sS'CALSOFT'
p4714
I642
sS'514138'
p4715
I3831
sS'ACROPETAL'
p4716
I48
sS'530033'
p4717
I2449
sS'530037'
p4718
I3681
sS'530035'
p4719
I3376
sS'524000'
p4720
I2255
sS'ARSHIYA'
p4721
I256
sS'530039'
p4722
I2199
sS'CELESTIAL'
p4723
I678
sS'SPARC'
p4724
I3776
sS'GRABALALK'
p4725
I1350
sS'517494'
p4726
I41
sS'512297'
p4727
I4328
sS'512296'
p4728
I481
sS'512299'
p4729
I3729
sS'SIMPLEXCAS'
p4730
I3269
sS'509870'
p4731
I3453
sS'MATHPLATT'
p4732
I2473
sS'BIRLAERIC'
p4733
I534
sS'MANJUSHREE'
p4734
I2312
sS'530901'
p4735
I58
sS'511401'
p4736
I2500
sS'532868'
p4737
I954
sS'532869'
p4738
I3224
sS'512477'
p4739
I469
sS'532867'
p4740
I4259
sS'532864'
p4741
I2589
sS'532865'
p4742
I2374
sS'532862'
p4743
I1596
sS'532863'
p4744
I3670
sS'532860'
p4745
I2598
sS'532861'
p4746
I1597
sS'INDOCO'
p4747
I1688
sS'590013'
p4748
I4359
sS'MAHSEAMLES'
p4749
I2274
sS'523333'
p4750
I2908
sS'SAURASHCEM'
p4751
I3402
sS'AMARJOTHI'
p4752
I156
sS'500710'
p4753
I112
sS'HIRAFERRO'
p4754
I1438
sS'531800'
p4755
I3482
sS'531802'
p4756
I2962
sS'531807'
p4757
I1718
sS'M50'
p4758
I2462
sS'MAJESAUTO'
p4759
I2287
sS'532149'
p4760
I420
sS'531360'
p4761
I1332
sS'CAREERP'
p4762
I624
sS'GODFRYPHLP'
p4763
I1312
sS'TITAGRSTEL'
p4764
I3985
sS'961685'
p4765
I1175
sS'521184'
p4766
I2952
sS'503349'
p4767
I4214
sS'521180'
p4768
I3800
sS'TATACOFFEE'
p4769
I3905
sS'521182'
p4770
I3428
sS'KJMCFIN'
p4771
I2062
sS'521188'
p4772
I4114
sS'HIRECT'
p4773
I1508
sS'511114'
p4774
I3187
sS'CHI'
p4775
I723
sS'ZENITHINFO'
p4776
I4388
sS'524648'
p4777
I1674
sS'507552'
p4778
I1171
sS'524640'
p4779
I3542
sS'507886'
p4780
I932
sS'524642'
p4781
I1369
sS'533095'
p4782
I458
sS'533096'
p4783
I55
sS'533090'
p4784
I1105
sS'533093'
p4785
I3064
sS'533098'
p4786
I2617
sS'526519'
p4787
I146
sS'521238'
p4788
I3440
sS'521236'
p4789
I3691
sS'521234'
p4790
I3694
sS'526512'
p4791
I1754
sS'SURANAIND'
p4792
I3817
sS'526510'
p4793
I3456
sS'504288'
p4794
I2907
sS'504286'
p4795
I896
sS'ABGSHIP'
p4796
I33
sS'AFL'
p4797
I40
sS'NAHARSPING'
p4798
I2544
sS'ANSALAPI'
p4799
I209
sS'509011'
p4800
I2186
sS'509015'
p4801
I3955
sS'WOCKPHARMA'
p4802
I4346
sS'ASTEC'
p4803
I320
sS'ARCOTECH'
p4804
I14
sS'JISLJALEQS'
p4805
I1815
sS'ISMTLTD'
p4806
I1781
sS'SWARAJENG'
p4807
I3847
sS'523696'
p4808
I2291
sS'531249'
p4809
I4315
sS'523694'
p4810
I217
sS'531247'
p4811
I144
sS'531246'
p4812
I2968
sS'VADILALIND'
p4813
I4164
sS'531241'
p4814
I2178
sS'531240'
p4815
I3467
sS'532057'
p4816
I34
sS'532056'
p4817
I63
sS'ATLANTA'
p4818
I326
sS'532054'
p4819
I2001
sS'532053'
p4820
I4303
sS'532051'
p4821
I2676
sS'520008'
p4822
I3199
sS'520003'
p4823
I4290
sS'NECLIFE'
p4824
I2582
sS'NIITLTD'
p4825
I2624
sS'500690'
p4826
I1418
sS'531658'
p4827
I4034
sS'531659'
p4828
I4044
sS'500163'
p4829
I1312
sS'531650'
p4830
I4192
sS'531651'
p4831
I2559
sS'531652'
p4832
I3962
sS'COMPUTECH'
p4833
I783
sS'FUTUREVENT'
p4834
I1203
sS'FTCSF5YDIV'
p4835
I1197
sS'KRISHNAENG'
p4836
I2098
sS'SUJANATWR'
p4837
I3283
sS'500164'
p4838
I1314
sS'508869'
p4839
I222
sS'508867'
p4840
I2587
sS'590073'
p4841
I4329
sS'508860'
p4842
I937
sS'503205'
p4843
I3526
sS'THOMASCOTT'
p4844
I3871
sS'POLYCHEM'
p4845
I2913
sS'GENUSPAPER'
p4846
I1207
sS'NAKODATEX'
p4847
I2546
sS'511092'
p4848
I1891
sS'512087'
p4849
I2821
sS'517564'
p4850
I1349
sS'517565'
p4851
I278
sS'517562'
p4852
I4033
sS'530525'
p4853
I3483
sS'530521'
p4854
I4249
sS'530835'
p4855
I1036
sS'517569'
p4856
I2007
sS'GALLANTT'
p4857
I1230
sS'511218'
p4858
I3554
sS'511210'
p4859
I432
sS'519230'
p4860
I3198
sS'519234'
p4861
I3805
sS'519238'
p4862
I3379
sS'MARUTI'
p4863
I2335
sS'502137'
p4864
I883
sS'PAGEIND'
p4865
I2786
sS'VENKEYS'
p4866
I4202
sS'503663'
p4867
I3969
sS'504369'
p4868
I1351
sS'526161'
p4869
I3668
sS'503669'
p4870
I2111
sS'ISFT'
p4871
I1763
sS'BPCL'
p4872
I497
sS'504360'
p4873
I3182
sS'503881'
p4874
I1509
sS'526169'
p4875
I2493
sS'LOTUSEYE'
p4876
I2203
sS'523100'
p4877
I811
sS'523105'
p4878
I2899
sS'AMAR'
p4879
I154
sS'TNPL'
p4880
I3889
sS'512413'
p4881
I3664
sS'519359'
p4882
I2924
sS'532843'
p4883
I1174
sS'517174'
p4884
I1553
sS'531013'
p4885
I3775
sS'513536'
p4886
I2166
sS'531016'
p4887
I1715
sS'531017'
p4888
I246
sS'531015'
p4889
I4369
sS'DPTL'
p4890
I935
sS'500280'
p4891
I687
sS'BALMLAWRIE'
p4892
I409
sS'532607'
p4893
I2716
sS'532604'
p4894
I3338
sS'532605'
p4895
I1853
sS'532608'
p4896
I884
sS'500288'
p4897
I2453
sS'507944'
p4898
I398
sS'507946'
p4899
I2037
sS'507942'
p4900
I4157
sS'SEZAL'
p4901
I3278
sS'507948'
p4902
I2022
sS'DHARAMORAR'
p4903
I926
sS'PALRED'
p4904
I2772
sS'500069'
p4905
I564
sS'500068'
p4906
I1216
sS'500067'
p4907
I559
sS'500063'
p4908
I2750
sS'505010'
p4909
I345
sS'500060'
p4910
I534
sS'524458'
p4911
I3204
sS'ASIANPAINT'
p4912
I306
sS'TATASPONGE'
p4913
I3915
sS'SALSTEEL'
p4914
I3338
sS'FIRSTWIN'
p4915
I1162
sS'514482'
p4916
I272
sS'513108'
p4917
I1234
sS'514486'
p4918
I2915
sS'514336'
p4919
I1154
sS'514332'
p4920
I215
sS'514330'
p4921
I2757
sS'508670'
p4922
I2583
sS'HEXATRADEX'
p4923
I1440
sS'REVATHI'
p4924
I3191
sS'BECREL'
p4925
I465
sS'519152'
p4926
I4163
sS'523832'
p4927
I2484
sS'533519'
p4928
I2132
sS'NICCO'
p4929
I2618
sS'514152'
p4930
I3465
sS'519156'
p4931
I4164
sS'523836'
p4932
I1415
sS'AMBICAAGAR'
p4933
I158
sS'AURIONPRO'
p4934
I335
sS'SHOPERSTOP'
p4935
I3504
sS'SUPERSPIN'
p4936
I3800
sS'VINDHYATEL'
p4937
I4237
sS'501622'
p4938
I152
sS'SAKUMA'
p4939
I3337
sS'HINDIND'
p4940
I1507
sS'SHRINATRAJ'
p4941
I3285
sS'506938'
p4942
I1978
sS'533553'
p4943
I3928
sS'512279'
p4944
I4265
sS'517354'
p4945
I1467
sS'517356'
p4946
I46
sS'512271'
p4947
I3902
sS'512273'
p4948
I250
sS'REDINGTON '
p4949
I3149
sS'RAYMOND'
p4950
I3142
sS'523483'
p4951
I2782
sS'532366'
p4952
I2903
sS'BODALCHEM'
p4953
I567
sS'523489'
p4954
I718
sS'PLASTIBLEN'
p4955
I2900
sS'KIRIINDUS'
p4956
I2050
sS'532848'
p4957
I895
sS'532849'
p4958
I522
sS'532840'
p4959
I76
sS'517170'
p4960
I2066
sS'532842'
p4961
I3683
sS'517172'
p4962
I3713
sS'532845'
p4963
I480
sS'512417'
p4964
I3477
sS'532847'
p4965
I1497
sS'IOC'
p4966
I1667
sS'IOB'
p4967
I1668
sS'ALBK'
p4968
I133
sS'531820'
p4969
I1150
sS'531823'
p4970
I270
sS'531822'
p4971
I4256
sS'531821'
p4972
I2499
sS'KANORICHEM'
p4973
I1972
sS'531826'
p4974
I889
sS'531825'
p4975
I3144
sS'PRESSMN'
p4976
I2776
sS'516082'
p4977
I2666
sS'BANKINDIA'
p4978
I420
sS'INDIAINFO'
p4979
I1643
sS'VXLINSTR'
p4980
I4288
sS'ASIANHOTNR'
p4981
I303
sS'SMPL'
p4982
I3764
sS'507717'
p4983
I923
sS'SCI'
p4984
I3492
sS'522199'
p4985
I2447
sS'522195'
p4986
I1191
sS'511682'
p4987
I1609
sS'LCCINFOTEC'
p4988
I2161
sS'530991'
p4989
I3225
sS'530993'
p4990
I3392
sS'526755'
p4991
I4200
sS'511688'
p4992
I2344
sS'ALPSINDUS'
p4993
I147
sS'526751'
p4994
I1356
sS'530999'
p4995
I403
sS'526753'
p4996
I3231
sS'524667'
p4997
I3407
sS'531297'
p4998
I260
sS'524663'
p4999
I496
sS'524661'
p5000
I4314
sS'524669'
p5001
I1490
sS'505872'
p5002
I4352
sS'JBFIND'
p5003
I1852
sS'GLENMARK'
p5004
I1295
sS'526285'
p5005
I951
sS'533078'
p5006
I2311
sS'OBEROIRLTY'
p5007
I2688
sS'526570'
p5008
I2660
sS'526574'
p5009
I1063
sS'526576'
p5010
I2556
sS'524590'
p5011
I945
sS'524592'
p5012
I1856
sS'524594'
p5013
I288
sS'524598'
p5014
I111
sS'532084'
p5015
I1130
sS'532086'
p5016
I2690
sS'NOVAIRNSTL'
p5017
I2661
sS'511024'
p5018
I3756
sS'500400'
p5019
I3914
sS'505712'
p5020
I1388
sS'505710'
p5021
I1357
sS'505711'
p5022
I1223
sS'505714'
p5023
I1218
sS'505690'
p5024
I587
sS'GOKUL'
p5025
I1320
sS'MERCK'
p5026
I2383
sS'504000'
p5027
I1034
sS'509038'
p5028
I4279
sS'504008'
p5029
I1041
sS'523716'
p5030
I280
sS'523712'
p5031
I1893
sS'523710'
p5032
I3410
sS'GSFC'
p5033
I1418
sS'MANGCHEFER'
p5034
I2307
sS'515147'
p5035
I1445
sS'515145'
p5036
I1536
sS'505242'
p5037
I982
sS'SHIV-VANI'
p5038
I3494
sS'TIMKEN'
p5039
I3975
sS'531228'
p5040
I3108
sS'500495'
p5041
I1078
sS'500493'
p5042
I493
sS'500490'
p5043
I397
sS'531221'
p5044
I2351
sS'531223'
p5045
I200
sS'523676'
p5046
I1333
sS'531225'
p5047
I1189
sS'531224'
p5048
I783
sS'531227'
p5049
I887
sS'523672'
p5050
I1167
sS'532039'
p5051
I4389
sS'532038'
p5052
I1046
sS'BAJAJ-AUTO'
p5053
I390
sS'532033'
p5054
I1817
sS'532035'
p5055
I4101
sS'532034'
p5056
I2822
sS'500084'
p5057
I693
sS'CRMFGETF'
p5058
I622
sS'BINANICEM'
p5059
I522
sS'506894'
p5060
I715
sS'ESL'
p5061
I1024
sS'506543'
p5062
I2470
sS'506540'
p5063
I2118
sS'500720'
p5064
I1589
sS'JINDALPHOT'
p5065
I1873
sS'HOTLINGLAS'
p5066
I1557
sS'506093'
p5067
I438
sS'PROZONE'
p5068
I2769
sS'506767'
p5069
I132
sS'530177'
p5070
I3677
sS'530175'
p5071
I2696
sS'530173'
p5072
I2745
sS'530171'
p5073
I874
sS'530997'
p5074
I4098
sS'DOLPHINOFF'
p5075
I959
sS'512640'
p5076
I3741
sS'512642'
p5077
I262
sS'SHAMKNFAB'
p5078
I3465
sS'TARAJEWELS'
p5079
I3875
sS'505840'
p5080
I1820
sS'522298'
p5081
I2392
sS'522294'
p5082
I3878
sS'522295'
p5083
I797
sS'522296'
p5084
I3702
sS'522292'
p5085
I702
sS'530505'
p5086
I4129
sS'521080'
p5087
I2831
sS'521082'
p5088
I3669
sS'517544'
p5089
I685
sS'517546'
p5090
I124
sS'517548'
p5091
I3712
sS'ADORWELD'
p5092
I72
sS'MADSUDIND'
p5093
I2244
sS'526179'
p5094
I2207
sS'DYNAMATECH'
p5095
I982
sS'TATAGLOBAL'
p5096
I3909
sS'JAMNAAUTO'
p5097
I1830
sS'APOLSINHOT'
p5098
I13
sS'RSYSTEMS'
p5099
I3040
sS'INDIANB '
p5100
I1658
sS'526141'
p5101
I778
sS'526143'
p5102
I2408
sS'SSLT'
p5103
I3284
sS'512375'
p5104
I1996
sS'519331'
p5105
I4225
sS'BFINVEST'
p5106
I470
sS'531035'
p5107
I3992
sS'531033'
p5108
I3152
sS'SANGHVIMOV'
p5109
I3366
sS'500268'
p5110
I2299
sS'NATPEROXID'
p5111
I2561
sS'532624'
p5112
I1873
sS'500264'
p5113
I2251
sS'500267'
p5114
I2287
sS'532627'
p5115
I1822
sS'500260'
p5116
I2248
sS'532622'
p5117
I1254
sS'532623'
p5118
I2667
sS'507968'
p5119
I1900
sS'507966'
p5120
I3121
sS'533079'
p5121
I3356
sS'507962'
p5122
I3073
sS'507960'
p5123
I1399
sS'TEXRAIL'
p5124
I3949
sS'MHRIL'
p5125
I2283
sS'505036'
p5126
I344
sS'500009'
p5127
I157
sS'500008'
p5128
I155
sS'CAROLINFO'
p5129
I663
sS'505520'
p5130
I1485
sS'500003'
p5131
I79
sS'500002'
p5132
I25
sS'505525'
p5133
I2820
sS'505526'
p5134
I956
sS'ORIENTPPR'
p5135
I2733
sS'PORWAL'
p5136
I2927
sS'524434'
p5137
I307
sS'^DJI'
p5138
I961
sS'514312'
p5139
I1814
sS'514316'
p5140
I3052
sS'530347'
p5141
I2259
sS'530341'
p5142
I2485
sS'530343'
p5143
I1274
sS'CORALFINAC'
p5144
I799
sS'HILTON'
p5145
I1497
sS'501351'
p5146
I3118
sS'IMPAL'
p5147
I1645
sS'512257'
p5148
I3849
sS'517374'
p5149
I2487
sS'512253'
p5150
I526
sS'517372'
p5151
I1402
sS'DONEAR'
p5152
I960
sS'STEELTUBES'
p5153
I3724
sS'509839'
p5154
I3012
sS'509525'
p5155
I1049
sS'504807'
p5156
I3774
sS'509835'
p5157
I2960
sS'514175'
p5158
I4186
sS'514177'
p5159
I3206
sS'514171'
p5160
I676
sS'SIDDHATUBE'
p5161
I3569
sS'SURYAJYOTI'
p5162
I3828
sS'532614'
p5163
I1621
sS'532822'
p5164
I1602
sS'DUNCANSIND'
p5165
I975
sS'532820'
p5166
I2481
sS'532821'
p5167
I1698
sS'512437'
p5168
I221
sS'532827'
p5169
I2786
sS'532824'
p5170
I4286
sS'532825'
p5171
I1804
sS'532828'
p5172
I163
sS'532616'
p5173
I644
sS'JETAIRWAYS'
p5174
I1859
sS'531592'
p5175
I61
sS'BAYERCROP'
p5176
I435
sS'531590'
p5177
I520
sS'531597'
p5178
I2401
sS'506373'
p5179
I750
sS'531594'
p5180
I1628
sS'531599'
p5181
I1133
sS'531598'
p5182
I3560
sS'CINEVISTA'
p5183
I745
sS'ALFREDHERB'
p5184
I126
sS'MANUGRAPH'
p5185
I2317
sS'HITECHGEAR'
p5186
I1493
sS'BIOCON'
p5187
I528
sS'ONWARDTEC'
p5188
I2717
sS'507779'
p5189
I1973
sS'526775'
p5190
I4170
sS'533336'
p5191
I934
sS'526773'
p5192
I2963
sS'533330'
p5193
I48
sS'533333'
p5194
I1155
sS'533332'
p5195
I3759
sS'LINCPEN'
p5196
I2130
sS'DCMSRMIND'
p5197
I880
sS'530979'
p5198
I2313
sS'530977'
p5199
I1990
sS'530973'
p5200
I122
sS'TORNTPOWER'
p5201
I4001
sS'530971'
p5202
I2634
sS'PRECOT'
p5203
I2952
sS'524602'
p5204
I3497
sS'507598'
p5205
I2067
sS'524606'
p5206
I463
sS'524608'
p5207
I1137
sS'SKFINDIA'
p5208
I3607
sS'JPPOWER'
p5209
I1822
sS'533059'
p5210
I590
sS'526550'
p5211
I814
sS'526556'
p5212
I354
sS'526554'
p5213
I3339
sS'526558'
p5214
I1828
sS'533055'
p5215
I1006
sS'533056'
p5216
I3389
sS'INFY'
p5217
I1711
sS'KILBUNENGG'
p5218
I2039
sS'SHILPI'
p5219
I3490
sS'JMCPROJECT'
p5220
I1890
sS'503297'
p5221
I3801
sS'APLAPOLLO'
p5222
I12
sS'511000'
p5223
I2245
sS'TATIASKYLN'
p5224
I3877
sS'MAFATLAIND'
p5225
I2251
sS'KARMAENG'
p5226
I1981
sS'MLL'
p5227
I2382
sS'504028'
p5228
I1264
sS'523732'
p5229
I4294
sS'523736'
p5230
I935
sS'NRC'
p5231
I2669
sS'ORIENTBANK'
p5232
I2735
sS'512070'
p5233
I4112
sS'BALLARPUR'
p5234
I408
sS'531203'
p5235
I3328
sS'531201'
p5236
I3487
sS'531207'
p5237
I3141
sS'531206'
p5238
I2121
sS'531205'
p5239
I1975
sS'523650'
p5240
I3148
sS'531209'
p5241
I2675
sS'FORTIS'
p5242
I1174
sS'523658'
p5243
I3211
sS'505190'
p5244
I2044
sS'505192'
p5245
I3618
sS'532010'
p5246
I2601
sS'532016'
p5247
I4131
sS'532015'
p5248
I1360
sS'BANARBEADS'
p5249
I415
sS'NOIDATOLL'
p5250
I2656
sS'532019'
p5251
I2161
sS'ABBOTINDIA'
p5252
I26
sS'KSERASERA'
p5253
I1934
sS'TELEDATAGL'
p5254
I3938
sS'SONASTEER'
p5255
I3642
sS'FEDDERLOYD'
p5256
I1134
sS'DECCANCE'
p5257
I883
sS'501295'
p5258
I1702
sS'518029'
p5259
I1417
sS'501298'
p5260
I1701
sS'513648'
p5261
I2323
sS'CANFINHOME'
p5262
I651
sS'513642'
p5263
I360
sS'530151'
p5264
I4223
sS'530155'
p5265
I3997
sS'524388'
p5266
I822
sS'TULSI'
p5267
I4053
sS'ONGC'
p5268
I2697
sS'VIKASGLOB'
p5269
I4148
sS'509992'
p5270
I4075
sS'HYDRBADIND'
p5271
I1571
sS'UTTAMSUGAR'
p5272
I4142
sS'530561'
p5273
I3232
sS'530565'
p5274
I3299
sS'517522'
p5275
I3086
sS'502241'
p5276
I1592
sS'SHASUNPHAR'
p5277
I3479
sS'512405'
p5278
I1591
sS'STERTOOLS'
p5279
I3734
sS'AUTOIND'
p5280
I342
sS'519273'
p5281
I4126
sS'519279'
p5282
I2243
sS'VBDESAIFIN'
p5283
I4159
sS'NARMADASUG'
p5284
I2530
sS'531784'
p5285
I1939
sS'531783'
p5286
I1520
sS'531780'
p5287
I1944
sS'531781'
p5288
I3827
sS'JAIHINDPRO'
p5289
I1796
sS'PASUPATSPG'
p5290
I2835
sS'BGLOBAL'
p5291
I502
sS'526125'
p5292
I245
sS'519319'
p5293
I3680
sS'REISIXTEN'
p5294
I3158
sS'REIAGROLTD'
p5295
I3157
sS'DEEPIND'
p5296
I890
sS'KALINDEE'
p5297
I1950
sS'CELEBRITY'
p5298
I677
sS'ARENTERP'
p5299
I3074
sS'500247'
p5300
I2081
sS'500246'
p5301
I1931
sS'500245'
p5302
I2054
sS'500243'
p5303
I2056
sS'FKONCO'
p5304
I1187
sS'500240'
p5305
I2043
sS'IBIPL'
p5306
I1578
sS'500249'
p5307
I2107
sS'500248'
p5308
I2100
sS'BAJAJFINSV'
p5309
I394
sS'CHESLINTEX'
p5310
I720
sS'503624'
p5311
I3841
sS'BANCOINDIA'
p5312
I417
sS'500023'
p5313
I303
sS'505502'
p5314
I2810
sS'500020'
p5315
I571
sS'500027'
p5316
I331
sS'505506'
p5317
I366
sS'500025'
p5318
I315
sS'500024'
p5319
I314
sS'505509'
p5320
I3188
sS'500028'
p5321
I332
sS'523670'
p5322
I2655
sS'524410'
p5323
I3688
sS'524412'
p5324
I20
sS'VARDMNPOLY'
p5325
I4186
sS'GUJALKALI'
p5326
I1385
sS'RELIANCE'
p5327
I3167
sS'530367'
p5328
I2668
sS'530365'
p5329
I2730
sS'530363'
p5330
I4080
sS'ANSALHSG'
p5331
I208
sS'530369'
p5332
I4178
sS'532031'
p5333
I3381
sS'IVRCLAH'
p5334
I1790
sS'SABERORGAN'
p5335
I3316
sS'TATAMOTORS'
p5336
I3912
sS'EXIDEIND'
p5337
I1108
sS'INDSWFTLAB'
p5338
I1631
sS'533552'
p5339
I3257
sS'530091'
p5340
I4399
sS'530093'
p5341
I44
sS'530095'
p5342
I478
sS'501370'
p5343
I4300
sS'AGCNET'
p5344
I84
sS'NILKAMAL'
p5345
I2633
sS'PARASPETRO'
p5346
I2815
sS'KAKATCEM'
p5347
I1946
sS'513412'
p5348
I119
sS'513414'
p5349
I3764
sS'513418'
p5350
I3491
sS'506975'
p5351
I3071
sS'512233'
p5352
I1846
sS'512237'
p5353
I1811
sS'TRF'
p5354
I4029
sS'504824'
p5355
I2270
sS'504823'
p5356
I2285
sS'531416'
p5357
I2550
sS'531417'
p5358
I2371
sS'505400'
p5359
I3948
sS'531412'
p5360
I3053
sS'531413'
p5361
I2047
sS'531410'
p5362
I1397
sS'531411'
p5363
I4055
sS'531418'
p5364
I3863
sS'531419'
p5365
I1341
sS'532205'
p5366
I4023
sS'532200'
p5367
I3716
sS'514199'
p5368
I402
sS'514197'
p5369
I3307
sS'VARDHACRLC '
p5370
I4183
sS'532209'
p5371
I1829
sS'532808'
p5372
I1559
sS'532809'
p5373
I1163
sS'APTECHT'
p5374
I226
sS'UJAAS'
p5375
I4072
sS'519483'
p5376
I3881
sS'532805'
p5377
I3149
sS'532806'
p5378
I95
sS'532807'
p5379
I743
sS'532800'
p5380
I4060
sS'532801'
p5381
I645
sS'519485'
p5382
I304
sS'532803'
p5383
I2904
sS'531578'
p5384
I2068
sS'531574'
p5385
I4190
sS'506355'
p5386
I717
sS'531570'
p5387
I3556
sS'ORIENTBELL'
p5388
I2684
sS'FTCSF5YGRO'
p5389
I1186
sS'WIDIA'
p5390
I4295
sS'INDOZINC'
p5391
I1687
sS'MAWANASUG'
p5392
I2347
sS'NEOCURE'
p5393
I2592
sS'532178'
p5394
I1054
sS'532179'
p5395
I808
sS'INDIACEM'
p5396
I1639
sS'507759'
p5397
I2176
sS'FILATEX'
p5398
I1147
sS'LICNMFET'
p5399
I2129
sS'507753'
p5400
I3682
sS'500355'
p5401
I3089
sS'500354'
p5402
I3087
sS'961664'
p5403
I2049
sS'961665'
p5404
I2722
sS'526711'
p5405
I56
sS'532177'
p5406
I4394
sS'526715'
p5407
I210
sS'526717'
p5408
I1340
sS'533317'
p5409
I2710
sS'533316'
p5410
I3439
sS'533315'
p5411
I1722
sS'533314'
p5412
I88
sS'533310'
p5413
I2403
sS'530959'
p5414
I940
sS'SGL'
p5415
I3740
sS'XPROINDIA'
p5416
I4359
sS'530951'
p5417
I3090
sS'530953'
p5418
I3789
sS'530955'
p5419
I1942
sS'524628'
p5420
I2823
sS'524622'
p5421
I2975
sS'PAREKHPLAT'
p5422
I2818
sS'524624'
p5423
I1220
sS'533033'
p5424
I3383
sS'BONGAIREFN'
p5425
I579
sS'SATHAISPAT'
p5426
I3399
sS'RASLAMIPAK'
p5427
I3120
sS'PFS'
p5428
I2997
sS'GSKCONS'
p5429
I1293
sS'LKPMERFIN'
p5430
I2187
sS'VGUARD'
p5431
I4160
sS'590027'
p5432
I1847
sS'590024'
p5433
I1140
sS'590025'
p5434
I1285
sS'590022'
p5435
I997
sS'590023'
p5436
I1030
sS'590020'
p5437
I3946
sS'590021'
p5438
I498
sS'590028'
p5439
I2618
sS'SKSMICRO'
p5440
I3611
sS'TALWALKARS'
p5441
I3887
sS'504227'
p5442
I4333
sS'507442'
p5443
I928
sS'523283'
p5444
I3804
sS'523289'
p5445
I3098
sS'511064'
p5446
I3966
sS'511066'
p5447
I3335
sS'KPIT'
p5448
I2093
sS'500900'
p5449
I3735
sS'GATI'
p5450
I1255
sS'MCLEODRUSS'
p5451
I2358
sS'JEYPORE'
p5452
I1861
sS'532783'
p5453
I2206
sS'632480'
p5454
I134
sS'532781'
p5455
I551
sS'532780'
p5456
I2829
sS'532787'
p5457
I1080
sS'532786'
p5458
I1362
sS'532785'
p5459
I3255
sS'532784'
p5460
I3623
sS'523752'
p5461
I1768
sS'532789'
p5462
I2641
sS'519105'
p5463
I359
sS'523756'
p5464
I3685
sS'523754'
p5465
I1068
sS'GANDHITUBE'
p5466
I1234
sS'VIMTALABS'
p5467
I4233
sS'EMCO'
p5468
I1041
sS'CITURGIBIO'
p5469
I750
sS'523630'
p5470
I2558
sS'GEOMETRIC'
p5471
I1277
sS'523638'
p5472
I1772
sS'SEPOWER'
p5473
I3266
sS'HINDSPG'
p5474
I1511
sS'RELMEDIA'
p5475
I3169
sS'SREERAYALK'
p5476
I3682
sS'RUBFILINTL'
p5477
I3249
sS'513337'
p5478
I1423
sS'513335'
p5479
I94
sS'513333'
p5480
I514
sS'513629'
p5481
I4054
sS'504810'
p5482
I1710
sS'513627'
p5483
I2099
sS'530139'
p5484
I3918
sS'530133'
p5485
I162
sS'524364'
p5486
I3674
sS'530131'
p5487
I1887
sS'530135'
p5488
I106
sS'PROZONINTU'
p5489
I2768
sS'503960'
p5490
I490
sS'SPIC'
p5491
I3653
sS'SHILPAMED'
p5492
I3489
sS'CCHHL'
p5493
I613
sS'IIFL'
p5494
I1574
sS'508807'
p5495
I1590
sS'512424'
p5496
I2479
sS'ORBITCORP'
p5497
I2720
sS'517146'
p5498
I4133
sS'517056'
p5499
I3240
sS'530549'
p5500
I3489
sS'517500'
p5501
I3235
sS'512573'
p5502
I352
sS'530543'
p5503
I2324
sS'517140'
p5504
I2459
sS'530547'
p5505
I2011
sS'530545'
p5506
I810
sS'517059'
p5507
I3342
sS'TV-18'
p5508
I3943
sS'532850'
p5509
I2391
sS'TRIVENSHET'
p5510
I4043
sS'PANASONIC'
p5511
I2795
sS'511276'
p5512
I2369
sS'511272'
p5513
I694
sS'519299'
p5514
I2971
sS'519295'
p5515
I413
sS'513434'
p5516
I3911
sS'MBIND'
p5517
I2233
sS'HANUNG'
p5518
I1450
sS'ARTSONENGG'
p5519
I263
sS'M&M;'
p5520
I2280
sS'LLOYDSTEEL'
p5521
I2191
sS'LYKALABS'
p5522
I2214
sS'502995'
p5523
I2294
sS'HDFCMFGETF'
p5524
I1478
sS'GULFOILLUB'
p5525
I1210
sS'500220'
p5526
I1834
sS'500223'
p5527
I1855
sS'500222'
p5528
I1854
sS'500227'
p5529
I1874
sS'500226'
p5530
I790
sS'APCOTEXIND'
p5531
I217
sS'CANBK'
p5532
I653
sS'AGRITECH'
p5533
I9
sS'AGARIND'
p5534
I11
sS'521336'
p5535
I1554
sS'504697'
p5536
I1224
sS'526109'
p5537
I2966
sS'CYBERMEDIA'
p5538
I841
sS'SUNCLAYTON'
p5539
I3782
sS'CRONIMET'
p5540
I831
sS'505075'
p5541
I3448
sS'ALPHAGEO'
p5542
I145
sS'532219'
p5543
I1053
sS'GLAXO'
p5544
I1294
sS'ADSL'
p5545
I137
sS'GOLDSHARE'
p5546
I4140
sS'500575'
p5547
I4281
sS'530305'
p5548
I2883
sS'530307'
p5549
I698
sS'523519'
p5550
I4121
sS'530309'
p5551
I703
sS'BGRENERGY'
p5552
I473
sS'MENONBE'
p5553
I2221
sS'INFODRIVE'
p5554
I1706
sS'501178'
p5555
I3835
sS'501179'
p5556
I2746
sS'500570'
p5557
I3912
sS'533573'
p5558
I121
sS'509152'
p5559
I1416
sS'533570'
p5560
I363
sS'SOTL'
p5561
I3407
sS'TODAYS'
p5562
I3993
sS'ANTGRAPHIC'
p5563
I210
sS'501311'
p5564
I1841
sS'501314'
p5565
I1960
sS'ROSSELLIND'
p5566
I3034
sS'DAICHIKARK'
p5567
I863
sS'514358'
p5568
I1099
sS'514428'
p5569
I1515
sS'532191'
p5570
I3717
sS'514354'
p5571
I2959
sS'513436'
p5572
I3452
sS'513430'
p5573
I2830
sS'532199'
p5574
I2994
sS'512219'
p5575
I1703
sS'517330'
p5576
I762
sS'GTL'
p5577
I1381
sS'VTL'
p5578
I4187
sS'512215'
p5579
I4282
sS'517334'
p5580
I2460
sS'504840'
p5581
I1943
sS'509563'
p5582
I1250
sS'509567'
p5583
I1309
sS'531431'
p5584
I3458
sS'531432'
p5585
I3865
sS'531433'
p5586
I3788
sS'531436'
p5587
I2246
sS'531437'
p5588
I2939
sS'531439'
p5589
I1331
sS'532221'
p5590
I3644
sS'531557'
p5591
I168
sS'531556'
p5592
I799
sS'531553'
p5593
I242
sS'531552'
p5594
I3051
sS'531551'
p5595
I1750
sS'531550'
p5596
I1863
sS'513295'
p5597
I3254
sS'PREMIER'
p5598
I2958
sS'ALPINEHOU'
p5599
I0
sS'531881'
p5600
I266
sS'RBN'
p5601
I3162
sS'RBL'
p5602
I3109
sS'531887'
p5603
I3055
sS'531886'
p5604
I1816
sS'531889'
p5605
I1742
sS'531888'
p5606
I3192
sS'DALMIABEL'
p5607
I867
sS'FOURSOFT'
p5608
I1181
sS'590048'
p5609
I4069
sS'524194'
p5610
I3218
sS'517195'
p5611
I2725
sS'SUASHDIMON'
p5612
I3749
sS'DWARKESH'
p5613
I980
sS'DIVISLAB'
p5614
I950
sS'522134'
p5615
I263
sS'BSCFAUG08A'
p5616
I455
sS'526739'
p5617
I3305
sS'530931'
p5618
I3707
sS'521109'
p5619
I2540
sS'530937'
p5620
I4084
sS'530683'
p5621
I2894
sS'526733'
p5622
I3749
sS'526731'
p5623
I596
sS'526737'
p5624
I807
sS'530689'
p5625
I1364
sS'521103'
p5626
I172
sS'SUNCLAYLTD'
p5627
I3270
sS'526596'
p5628
I2170
sS'526594'
p5629
I377
sS'533018'
p5630
I3587
sS'533019'
p5631
I3588
sS'533014'
p5632
I3566
sS'533015'
p5633
I2672
sS'533016'
p5634
I341
sS'533017'
p5635
I3190
sS'533010'
p5636
I2694
sS'533011'
p5637
I798
sS'533012'
p5638
I2155
sS'526598'
p5639
I1408
sS'511593'
p5640
I2171
sS'511597'
p5641
I2788
sS'590001'
p5642
I721
sS'590003'
p5643
I1987
sS'590004'
p5644
I2201
sS'590005'
p5645
I3967
sS'590006'
p5646
I177
sS'511734'
p5647
I2834
sS'511736'
p5648
I4135
sS'511730'
p5649
I4022
sS'GEORGFISCH'
p5650
I1216
sS'511738'
p5651
I2377
sS'PARSVNATH'
p5652
I2829
sS'532424'
p5653
I1313
sS'532425'
p5654
I1426
sS'532421'
p5655
I1774
sS'632794'
p5656
I4380
sS'INEABS'
p5657
I1704
sS'504067'
p5658
I4390
sS'509099'
p5659
I2751
sS'523770'
p5660
I1753
sS'GKB'
p5661
I1290
sS'TORNTPHARM'
p5662
I4000
sS'532768'
p5663
I1145
sS'532856'
p5664
I3972
sS'532765'
p5665
I4136
sS'532764'
p5666
I1265
sS'532767'
p5667
I1257
sS'532766'
p5668
I3197
sS'532761'
p5669
I1562
sS'532760'
p5670
I890
sS'519126'
p5671
I1525
sS'532762'
p5672
I51
sS'523618'
p5673
I967
sS'PROVOGUE'
p5674
I2991
sS'512103'
p5675
I2621
sS'523610'
p5676
I1786
sS'PERCIMDIAM'
p5677
I2946
sS'512101'
p5678
I4036
sS'ASHIMASYN'
p5679
I283
sS'SOUTHBANK'
p5680
I3648
sS'BURNPUR'
p5681
I609
sS'FTCPOF3YDV'
p5682
I1194
sS'THINKSOFT'
p5683
I3961
sS'WIPRO'
p5684
I4342
sS'ORIENTLTD'
p5685
I2734
sS'USHERAGRO'
p5686
I4136
sS'516110'
p5687
I2872
sS'506520'
p5688
I1849
sS'506522'
p5689
I1888
sS'517429'
p5690
I4272
sS'505336'
p5691
I2418
sS'500780'
p5692
I4398
sS'TECHNOELEC'
p5693
I3931
sS'524204'
p5694
I3937
sS'524200'
p5695
I4235
sS'524202'
p5696
I2136
sS'508571'
p5697
I768
sS'524208'
p5698
I22
sS'515127'
p5699
I3103
sS'SOLEMS'
p5700
I3629
sS'KHANDSE'
p5701
I2030
sS'513353'
p5702
I769
sS'513355'
p5703
I2329
sS'513605'
p5704
I2151
sS'513359'
p5705
I2302
sS'530117'
p5706
I1550
sS'530111'
p5707
I3065
sS'PASUPTACRY'
p5708
I2833
sS'530119'
p5709
I2567
sS'524348'
p5710
I21
sS'SWANENERGY'
p5711
I3282
sS'524342'
p5712
I1677
sS'JENSONICOL'
p5713
I1858
sS'NATIONALUM'
p5714
I2557
sS'517296'
p5715
I1446
sS'505850'
p5716
I3884
sS'ORCHIDCHEM'
p5717
I2723
sS'BANKBEES'
p5718
I452
sS'501430'
p5719
I570
sS'INIFTY'
p5720
I1586
sS'509953'
p5721
I4008
sS'WOOLWORTH'
p5722
I4296
sS'PACIFICIND'
p5723
I2782
sS'PRIMESECU'
p5724
I2973
sS'512553'
p5725
I4385
sS'512008'
p5726
I153
sS'517077'
p5727
I1629
sS'512559'
p5728
I2073
sS'BLUESTARCO'
p5729
I559
sS'VOLTAS'
p5730
I4281
sS'NIRMA'
p5731
I2639
sS'TRICOM'
p5732
I4031
sS'OCTAV'
p5733
I2694
sS'524830'
p5734
I1019
sS'GLOBUSSPR'
p5735
I1302
sS'FAME'
p5736
I1127
sS'MYSOREBANK'
p5737
I3716
sS'SURANAVEL'
p5738
I3820
sS'EROSMEDIA'
p5739
I1073
sS'523186'
p5740
I378
sS'VENUSUGAR'
p5741
I4206
sS'507490'
p5742
I3106
sS'507498'
p5743
I2884
sS'KESARENT'
p5744
I2016
sS'DELTAMAGNT'
p5745
I896
sS'526691'
p5746
I2965
sS'505923'
p5747
I674
sS'PRAKASHCON'
p5748
I2764
sS'MALWACOTT'
p5749
I2294
sS'500209'
p5750
I1711
sS'500202'
p5751
I1644
sS'500201'
p5752
I1642
sS'500207'
p5753
I1684
sS'500206'
p5754
I1689
sS'500204'
p5755
I1647
sS'TELEMARINE'
p5756
I3939
sS'NAKODA'
p5757
I2520
sS'LAKSELECON'
p5758
I2141
sS'526473'
p5759
I1026
sS'526477'
p5760
I3645
sS'526479'
p5761
I3612
sS'GUJTHEMIS'
p5762
I1422
sS'BSL'
p5763
I607
sS'GUJCOTEX'
p5764
I1393
sS'530329'
p5765
I2490
sS'530323'
p5766
I1072
sS'530321'
p5767
I4091
sS'KERALACHEM'
p5768
I2647
sS'501150'
p5769
I684
sS'501151'
p5770
I1984
sS'501154'
p5771
I3226
sS'504973'
p5772
I4048
sS'509130'
p5773
I976
sS'RICOAUTO'
p5774
I3199
sS'TIMETECHNO'
p5775
I3972
sS'INDTRADECO'
p5776
I1633
sS'SURANASOL'
p5777
I3263
sS'UNIMIN'
p5778
I4091
sS'501848'
p5779
I1299
sS'500289'
p5780
I2455
sS'MUNDRAPORT'
p5781
I2495
sS'KIRLOSENG'
p5782
I2055
sS'514400'
p5783
I1252
sS'514402'
p5784
I3471
sS'509546'
p5785
I1358
sS'504864'
p5786
I2743
sS'531458'
p5787
I2159
sS'EMPEESUG'
p5788
I1048
sS'SJVN'
p5789
I3606
sS'531452'
p5790
I2576
sS'531453'
p5791
I2435
sS'523405'
p5792
I1889
sS'531456'
p5793
I2410
sS'531454'
p5794
I2916
sS'532249'
p5795
I3678
sS'TAKE'
p5796
I3885
sS'532628'
p5797
I4403
sS'532240'
p5798
I1646
sS'532629'
p5799
I2359
sS'PICCADSUG'
p5800
I2884
sS'WELINV'
p5801
I4319
sS'EIHOTEL'
p5802
I1011
sS'531531'
p5803
I1466
sS'531530'
p5804
I468
sS'531533'
p5805
I993
sS'506640'
p5806
I1424
sS'531537'
p5807
I583
sS'506642'
p5808
I3321
sS'531539'
p5809
I3207
sS'HAWKINCOOK'
p5810
I1468
sS'532626'
p5811
I2922
sS'500266'
p5812
I2273
sS'532998'
p5813
I2203
sS'AMTEKAUTO'
p5814
I178
sS'532621'
p5815
I2451
sS'21STCENMGM'
p5816
I4065
sS'PRATIBHA'
p5817
I2942
sS'516003'
p5818
I3386
sS'516007'
p5819
I2305
sS'STERLINHOL'
p5820
I3731
sS'PANCHMSTEL'
p5821
I2796
sS'513010'
p5822
I3915
sS'SBT'
p5823
I3717
sS'512493'
p5824
I1248
sS'512499'
p5825
I3462
sS'JPASSOCIAT'
p5826
I1821
sS'522113'
p5827
I3975
sS'BIOFILCHEM'
p5828
I529
sS'521127'
p5829
I2032
sS'SONATSOFTW'
p5830
I3644
sS'AXIS-IT&T;'
p5831
I364
sS'SSLFINANCE'
p5832
I3299
sS'530919'
p5833
I3184
sS'QUINTEGRA'
p5834
I3025
sS'PIDILITIND'
p5835
I2885
sS'530915'
p5836
I1905
sS'530917'
p5837
I3243
sS'530663'
p5838
I1347
sS'RELGRNIFTY'
p5839
I3178
sS'BRITANNIA'
p5840
I600
sS'PEARLPOLY'
p5841
I2848
sS'IGL'
p5842
I1693
sS'501473'
p5843
I2290
sS'MRPL'
p5844
I2308
sS'519552'
p5845
I1488
sS'502015'
p5846
I318
sS'DALALSTCOM'
p5847
I970
sS'HEIDELBERG'
p5848
I1482
sS'503940'
p5849
I297
sS'590068'
p5850
I2029
sS'590069'
p5851
I2147
sS'504269'
p5852
I2028
sS'590063'
p5853
I975
sS'590060'
p5854
I2421
sS'590061'
p5855
I603
sS'590066'
p5856
I1999
sS'590064'
p5857
I1809
sS'590065'
p5858
I1645
sS'PRIYADYES'
p5859
I2981
sS'TTML'
p5860
I3917
sS'511716'
p5861
I1077
sS'511714'
p5862
I2577
sS'ANTFRIBEAR'
p5863
I27
sS'511712'
p5864
I3175
sS'511710'
p5865
I835
sS'532400'
p5866
I2093
sS'532401'
p5867
I4224
sS'532402'
p5868
I4158
sS'532403'
p5869
I1182
sS'532404'
p5870
I3405
sS'532405'
p5871
I669
sS'532406'
p5872
I351
sS'532407'
p5873
I2458
sS'532408'
p5874
I2373
sS'500945'
p5875
I4175
sS'500940'
p5876
I1157
sS'FTCPOF5YGR'
p5877
I1184
sS'NEXTMEDIA'
p5878
I2611
sS'526315'
p5879
I952
sS'526313'
p5880
I2671
sS'504084'
p5881
I1995
sS'504080'
p5882
I1907
sS'INSILCO'
p5883
I1730
sS'BANKBARODA'
p5884
I419
sS'532747'
p5885
I2046
sS'532746'
p5886
I4117
sS'532745'
p5887
I1906
sS'532744'
p5888
I1383
sS'532743'
p5889
I3173
sS'532742'
p5890
I2841
sS'SURANACORP'
p5891
I3816
sS'532740'
p5892
I2197
sS'523796'
p5893
I4213
sS'523792'
p5894
I2354
sS'523790'
p5895
I3558
sS'532748'
p5896
I2970
sS'505529'
p5897
I3563
sS'507685'
p5898
I4342
sS'RKDL'
p5899
I3138
sS'FLEXITUFF'
p5900
I1119
sS'VSTTILLERS'
p5901
I4161
sS'DHFL'
p5902
I848
sS'VISHALEXPO'
p5903
I4257
sS'TAINWALCHM'
p5904
I3882
sS'RALLIS'
p5905
I3089
sS'505685'
p5906
I3899
sS'500418'
p5907
I3996
sS'505688'
p5908
I494
sS'500414'
p5909
I3974
sS'500412'
p5910
I3964
sS'505523'
p5911
I2271
sS'INDBANK'
p5912
I1636
sS'500411'
p5913
I3960
sS'BANG'
p5914
I418
sS'TECHM'
p5915
I3929
sS'523652'
p5916
I3390
sS'505355'
p5917
I2595
sS'524226'
p5918
I1386
sS'INDIANHUME'
p5919
I1663
sS'PDUMJEPULP'
p5920
I3001
sS'PUNJABWOOL'
p5921
I3012
sS'523890'
p5922
I969
sS'513377'
p5923
I2424
sS'513375'
p5924
I660
sS'523896'
p5925
I355
sS'ERAINFRA'
p5926
I1072
sS'UNITEDBNK'
p5927
I4105
sS'GODREJPROP'
p5928
I1315
sS'522229'
p5929
I3894
sS'ZENITHCOMP'
p5930
I4384
sS'ICRA'
p5931
I1599
sS'700108'
p5932
I3433
sS'700109'
p5933
I1782
sS'IDFC'
p5934
I1716
sS'700102'
p5935
I3699
sS'700107'
p5936
I2852
sS'RMCL'
p5937
I3045
sS'517271'
p5938
I1474
sS'509684'
p5939
I1640
sS'509930'
p5940
I3809
sS'RTNPOWER'
p5941
I3035
sS'501455'
p5942
I1363
sS'JMFINANCIL'
p5943
I1889
sS'SHRIRAMCIT'
p5944
I3552
sS'CENTUM'
p5945
I685
sS'512020'
p5946
I3382
sS'JINDALSWHL'
p5947
I1876
sS'512531'
p5948
I3719
sS'512024'
p5949
I2580
sS'512026'
p5950
I2870
sS'512535'
p5951
I274
sS'502223'
p5952
I1103
sS'VISASTEEL'
p5953
I4252
sS'513472'
p5954
I3585
sS'VISHALRET'
p5955
I4259
sS'PHOENIXLTD'
p5956
I2877
sS'524816'
p5957
I2554
sS'524818'
p5958
I983
sS'SAMINDUS'
p5959
I3267
sS'506107'
p5960
I2947
sS'506105'
p5961
I3708
sS'530843'
p5962
I837
sS'531210'
p5963
I771
sS'521036'
p5964
I3979
sS'NANDANEXIM'
p5965
I2517
sS'ALICON'
p5966
I127
sS'GOENKA'
p5967
I1316
sS'507474'
p5968
I2087
sS'MAHINDCIE'
p5969
I2230
sS'507472'
p5970
I4206
sS'IFBIND'
p5971
I1606
sS'STRAUSIND'
p5972
I3304
sS'526677'
p5973
I970
sS'526671'
p5974
I2898
sS'DENSO'
p5975
I902
sS'500480'
p5976
I836
sS'503681'
p5977
I1014
sS'503685'
p5978
I2365
sS'522300'
p5979
I3690
sS'503689'
p5980
I1479
sS'530495'
p5981
I3057
sS'530497'
p5982
I2336
sS'PANAMAPET'
p5983
I2765
sS'VIJSHAN'
p5984
I4221
sS'530499'
p5985
I104
sS'CINELINE'
p5986
I630
sS'526415'
p5987
I2700
sS'NETWORK'
p5988
I2604
sS'PRITHVISOF'
p5989
I2979
sS'SOFTTECHGR'
p5990
I3627
sS'511367'
p5991
I652
sS'532452'
p5992
I3646
sS'511361'
p5993
I552
sS'511369'
p5994
I1160
sS'504746'
p5995
I1665
sS'509110'
p5996
I240
sS'504741'
p5997
I1663
sS'KOKUYOCMLN'
p5998
I1927
sS'PROVOGE'
p5999
I2761
sS'ZUARIGLOB'
p6000
I4376
sS'ASILIND'
p6001
I196
sS'500083'
p6002
I688
sS'500085'
p6003
I700
sS'PRAJIND'
p6004
I2935
sS'500087'
p6005
I746
sS'500086'
p6006
I1108
sS'500089'
p6007
I941
sS'PANCARBON'
p6008
I2794
sS'514460'
p6009
I2755
sS'HYDROS&S;'
p6010
I1572
sS'531474'
p6011
I785
sS'506480'
p6012
I1425
sS'531470'
p6013
I2630
sS'531471'
p6014
I974
sS'531472'
p6015
I840
sS'507856'
p6016
I4097
sS'WENDT'
p6017
I4324
sS'531479'
p6018
I2288
sS'CHENNPETRO'
p6019
I719
sS'532264'
p6020
I701
sS'500627'
p6021
I1084
sS'500620'
p6022
I1361
sS'532262'
p6023
I3924
sS'512197'
p6024
I3582
sS'532268'
p6025
I1948
sS'523425'
p6026
I3793
sS'WILLARDLTD'
p6027
I4333
sS'PADMALAYAT'
p6028
I2784
sS'INTELLECT'
p6029
I1582
sS'FDC'
p6030
I1133
sS'SHIVAMAUTO'
p6031
I3502
sS'514286'
p6032
I283
sS'531519'
p6033
I204
sS'531518'
p6034
I4227
sS'514280'
p6035
I3374
sS'531517'
p6036
I113
sS'531515'
p6037
I2266
sS'IBSEC'
p6038
I1654
sS'KOTAKBKETF'
p6039
I1930
sS'PONNIERODE'
p6040
I2923
sS'509480'
p6041
I461
sS'516020'
p6042
I2741
sS'516022'
p6043
I3710
sS'513039'
p6044
I1537
sS'530705'
p6045
I1168
sS'530707'
p6046
I81
sS'530701'
p6047
I1334
sS'530703'
p6048
I1706
sS'530709'
p6049
I1346
sS'IFCI'
p6050
I1607
sS'RAJRAYON'
p6051
I3066
sS'522173'
p6052
I2098
sS'522175'
p6053
I3494
sS'SURYAPHARM'
p6054
I3823
sS'500360'
p6055
I3117
sS'521147'
p6056
I2406
sS'532162'
p6057
I1800
sS'521149'
p6058
I2974
sS'532161'
p6059
I383
sS'517481'
p6060
I259
sS'530643'
p6061
I1713
sS'EMKAY'
p6062
I1043
sS'500365'
p6063
I3181
sS'532164'
p6064
I2415
sS'532872'
p6065
I3776
sS'GARWARPOLY'
p6066
I1251
sS'HERCULES'
p6067
I1487
sS'511559'
p6068
I3973
sS'511557'
p6069
I2984
sS'511551'
p6070
I2605
sS'SAKSOFT'
p6071
I3334
sS'519570'
p6072
I2142
sS'GANECOS'
p6073
I1212
sS'502563'
p6074
I3507
sS'526081'
p6075
I3481
sS'511082'
p6076
I2816
sS'DHARSUGAR'
p6077
I928
sS'504240'
p6078
I897
sS'GOLDTECH'
p6079
I1331
sS'523229'
p6080
I499
sS'523222'
p6081
I1548
sS'523221'
p6082
I2360
sS'532468'
p6083
I3687
sS'532469'
p6084
I2343
sS'RAJESHEXPO'
p6085
I3078
sS'532460'
p6086
I2923
sS'532461'
p6087
I3010
sS'532466'
p6088
I2719
sS'532467'
p6089
I1469
sS'NOCIL'
p6090
I2654
sS'NET4'
p6091
I2597
sS'CEREBRAINT'
p6092
I616
sS'HFCL'
p6093
I1499
sS'GABRIEL'
p6094
I1218
sS'526335'
p6095
I3539
sS'532721'
p6096
I4252
sS'532720'
p6097
I2279
sS'532723'
p6098
I2444
sS'532722'
p6099
I2642
sS'532725'
p6100
I3628
sS'532724'
p6101
I2468
sS'532727'
p6102
I60
sS'532726'
p6103
I1230
sS'532729'
p6104
I4142
sS'532728'
p6105
I2293
sS'590046'
p6106
I3619
sS'590041'
p6107
I1993
sS'590043'
p6108
I1454
sS'ZODJRDMKJ'
p6109
I4396
sS'ARL'
p6110
I270
sS'531289'
p6111
I1752
sS'531288'
p6112
I2162
sS'CINEPRO'
p6113
I620
sS'531283'
p6114
I741
sS'531281'
p6115
I2868
sS'531280'
p6116
I2799
sS'531287'
p6117
I2563
sS'500439'
p6118
I4184
sS'532093'
p6119
I4201
sS'532092'
p6120
I2058
sS'532090'
p6121
I4026
sS'532097'
p6122
I2482
sS'532096'
p6123
I2086
sS'KLGSYSTEL'
p6124
I2065
sS'GIPCL'
p6125
I1400
sS'524796'
p6126
I4182
sS'524794'
p6127
I2345
sS'SUMMIT'
p6128
I3774
sS'MCDOWELL-N'
p6129
I4113
sS'INDOSOLAR'
p6130
I1691
sS'RESPONIND'
p6131
I3188
sS'533411'
p6132
I3365
sS'533412'
p6133
I19
sS'509527'
p6134
I1126
sS'UBENGG'
p6135
I4075
sS'AROGRANITE'
p6136
I249
sS'STCINDIA'
p6137
I3719
sS'TIDEWATER'
p6138
I3967
sS'506874'
p6139
I312
sS'506879'
p6140
I1422
sS'SHREECEM'
p6141
I3508
sS'531088'
p6142
I4051
sS'517258'
p6143
I2949
sS'501471'
p6144
I2238
sS'501477'
p6145
I2491
sS'517250'
p6146
I1734
sS'501479'
p6147
I2610
sS'530533'
p6148
I3947
sS'THEBYKE'
p6149
I3870
sS'JKSYNTHETC'
p6150
I1885
sS'509910'
p6151
I3649
sS'GTOFFSHORE'
p6152
I1362
sS'JYOTISTRUC'
p6153
I1924
sS'517035'
p6154
I3261
sS'EDELWEISS'
p6155
I1005
sS'512047'
p6156
I2566
sS'532823'
p6157
I1089
sS'512048'
p6158
I3675
sS'512519'
p6159
I960
sS'524514'
p6160
I4050
sS'532826'
p6161
I3067
sS'520155'
p6162
I32
sS'520151'
p6163
I3540
sS'FAGBEARING'
p6164
I1123
sS'532829'
p6165
I2160
sS'SRICHAMUND'
p6166
I3690
sS'SBBJ'
p6167
I3714
sS'526431'
p6168
I4323
sS'506122'
p6169
I2798
sS'531709'
p6170
I1321
sS'506128'
p6171
I2097
sS'DCHL'
p6172
I884
sS'531703'
p6173
I4030
sS'TECHNOFAB'
p6174
I3934
sS'600112'
p6175
I3718
sS'SAKHTISUG'
p6176
I3336
sS'507450'
p6177
I3963
sS'DRREDDY'
p6178
I965
sS'507458'
p6179
I4106
sS'507180'
p6180
I2016
sS'533256'
p6181
I1541
sS'533257'
p6182
I1691
sS'533252'
p6183
I4319
sS'APPAPER'
p6184
I189
sS'522091'
p6185
I4115
sS'533258'
p6186
I3982
sS'533259'
p6187
I2396
sS'526650'
p6188
I4004
sS'526652'
p6189
I643
sS'526654'
p6190
I3954
sS'507981'
p6191
I1871
sS'507984'
p6192
I3441
sS'507987'
p6193
I1917
sS'531921'
p6194
I83
sS'531591'
p6195
I414
sS'DIAPOWER'
p6196
I939
sS'526435'
p6197
I2859
sS'531595'
p6198
I2441
sS'526433'
p6199
I313
sS'526439'
p6200
I160
s.